	.cpu cortex-a8
	.arch armv7-a
	.fpu neon
	.arch_extension sec
	.eabi_attribute 28, 1	@ Tag_ABI_VFP_args
	.eabi_attribute 20, 1	@ Tag_ABI_FP_denormal
	.eabi_attribute 21, 1	@ Tag_ABI_FP_exceptions
	.eabi_attribute 23, 3	@ Tag_ABI_FP_number_model
	.eabi_attribute 24, 1	@ Tag_ABI_align8_needed
	.eabi_attribute 25, 1	@ Tag_ABI_align8_preserved
	.eabi_attribute 26, 2	@ Tag_ABI_enum_size
	.eabi_attribute 30, 2	@ Tag_ABI_optimization_goals
	.eabi_attribute 34, 1	@ Tag_CPU_unaligned_access
	.eabi_attribute 18, 4	@ Tag_ABI_PCS_wchar_t
	.file	"test.cpp"
@ GNU C++17 (GCC) version 15.1.0 (arm-oe-linux-gnueabi)
@	compiled by GNU C version 15.1.0, GMP version 6.3.0, MPFR version 4.2.2, MPC version 1.3.1, isl version none
@ GGC heuristics: --param ggc-min-expand=100 --param ggc-min-heapsize=131072
@ options passed: -mfpu=neon -mfloat-abi=hard -mcpu=cortex-a8 -mtls-dialect=gnu -marm -march=armv7-a+sec+simd -g -O2 -O2 -ffunction-sections
	.text
.Ltext0:
	.cfi_sections	.debug_frame
	.file 1 "test.cpp"
	.section	.text._ZN17QArrayDataPointerIDsED2Ev,"axG",%progbits,_ZN17QArrayDataPointerIDsED5Ev,comdat
	.align	2
	.weak	_ZN17QArrayDataPointerIDsED2Ev
	.syntax unified
	.arm
	.type	_ZN17QArrayDataPointerIDsED2Ev, %function
_ZN17QArrayDataPointerIDsED2Ev:
	.fnstart
.LVL0:
.LFB8859:
	.file 2 "/opt/venus/walnascar-arm-cortexa8hf-neon/sysroots/cortexa8hf-neon-oe-linux-gnueabi/usr/include/qt6/QtCore/qarraydatapointer.h"
	.loc 2 106 5 view -0
	.cfi_startproc
	@ args = 0, pretend = 0, frame = 0
	@ frame_needed = 0, uses_anonymous_args = 0
	.loc 2 106 5 is_stmt 0 view .LVU1
	ldr	r3, [r0]	@ _9, MEM[(struct Data * *)this_4(D)]
	push	{r4, lr}	@
	.cfi_def_cfa_offset 8
	.cfi_offset 4, -8
	.cfi_offset 14, -4
.LBB631:
.LBB632:
.LBB633:
@ /opt/venus/walnascar-arm-cortexa8hf-neon/sysroots/cortexa8hf-neon-oe-linux-gnueabi/usr/include/qt6/QtCore/qarraydatapointer.h:452:     bool deref() noexcept { return !d || d->deref(); }
	.loc 2 452 39 view .LVU2
	cmp	r3, #0	@ _9,
.LBE633:
.LBE632:
.LBE631:
@ /opt/venus/walnascar-arm-cortexa8hf-neon/sysroots/cortexa8hf-neon-oe-linux-gnueabi/usr/include/qt6/QtCore/qarraydatapointer.h:106:     ~QArrayDataPointer()
	.loc 2 106 5 view .LVU3
	mov	r4, r0	@ this, this
.LBB646:
.LBB645:
.LBI632:
	.loc 2 452 10 is_stmt 1 view .LVU4
.LVL1:
.LBB644:
@ /opt/venus/walnascar-arm-cortexa8hf-neon/sysroots/cortexa8hf-neon-oe-linux-gnueabi/usr/include/qt6/QtCore/qarraydatapointer.h:452:     bool deref() noexcept { return !d || d->deref(); }
	.loc 2 452 39 is_stmt 0 view .LVU5
	beq	.L3		@,
.LVL2:
.LBB634:
.LBI634:
	.file 3 "/opt/venus/walnascar-arm-cortexa8hf-neon/sysroots/cortexa8hf-neon-oe-linux-gnueabi/usr/include/qt6/QtCore/qarraydata.h"
	.loc 3 64 10 is_stmt 1 view .LVU6
	.loc 3 66 9 view .LVU7
.LBB635:
.LBI635:
	.file 4 "/opt/venus/walnascar-arm-cortexa8hf-neon/sysroots/cortexa8hf-neon-oe-linux-gnueabi/usr/include/qt6/QtCore/qbasicatomic.h"
	.loc 4 48 10 view .LVU8
.LBB636:
.LBI636:
	.file 5 "/opt/venus/walnascar-arm-cortexa8hf-neon/sysroots/cortexa8hf-neon-oe-linux-gnueabi/usr/include/qt6/QtCore/qatomic_cxx11.h"
	.loc 5 263 24 view .LVU9
.LBB637:
.LBI637:
	.file 6 "/opt/venus/walnascar-arm-cortexa8hf-neon/sysroots/cortexa8hf-neon-oe-linux-gnueabi/usr/include/c++/15.1.0/bits/atomic_base.h"
	.loc 6 639 7 view .LVU10
.LBB638:
@ /opt/venus/walnascar-arm-cortexa8hf-neon/sysroots/cortexa8hf-neon-oe-linux-gnueabi/usr/include/c++/15.1.0/bits/atomic_base.h:641:       { return __atomic_fetch_sub(&_M_i, __i, int(__m)); }
	.loc 6 641 34 is_stmt 0 view .LVU11
	dmb	ish	
.L5:
	ldrex	r2, [r3]	@ _12,* _9
	sub	r2, r2, #1	@ _12, _12,
	strex	r1, r2, [r3]	@ tmp123, _12,* _9
	cmp	r1, #0	@ tmp123,
	bne	.L5		@,
.LBE638:
.LBE637:
.LBE636:
.LBE635:
.LBE634:
@ /opt/venus/walnascar-arm-cortexa8hf-neon/sysroots/cortexa8hf-neon-oe-linux-gnueabi/usr/include/qt6/QtCore/qarraydatapointer.h:452:     bool deref() noexcept { return !d || d->deref(); }
	.loc 2 452 39 discriminator 3 view .LVU12
	cmp	r2, #0	@ _12,
.LBB643:
.LBB642:
.LBB641:
.LBB640:
.LBB639:
@ /opt/venus/walnascar-arm-cortexa8hf-neon/sysroots/cortexa8hf-neon-oe-linux-gnueabi/usr/include/c++/15.1.0/bits/atomic_base.h:641:       { return __atomic_fetch_sub(&_M_i, __i, int(__m)); }
	.loc 6 641 34 view .LVU13
	dmb	ish	
.LVL3:
	.loc 6 641 34 view .LVU14
.LBE639:
.LBE640:
.LBE641:
.LBE642:
.LBE643:
@ /opt/venus/walnascar-arm-cortexa8hf-neon/sysroots/cortexa8hf-neon-oe-linux-gnueabi/usr/include/qt6/QtCore/qarraydatapointer.h:452:     bool deref() noexcept { return !d || d->deref(); }
	.loc 2 452 39 discriminator 3 view .LVU15
	beq	.L8		@,
.L3:
.LVL4:
	.loc 2 452 39 discriminator 3 view .LVU16
.LBE644:
.LBE645:
.LBE646:
@ /opt/venus/walnascar-arm-cortexa8hf-neon/sysroots/cortexa8hf-neon-oe-linux-gnueabi/usr/include/qt6/QtCore/qarraydatapointer.h:112:     }
	.loc 2 112 5 view .LVU17
	mov	r0, r4	@, this
.LVL5:
	.loc 2 112 5 view .LVU18
	pop	{r4, pc}	@
.LVL6:
.L8:
.LBB647:
.LBI647:
	.loc 2 106 5 is_stmt 1 view .LVU19
.LBB648:
.LBI648:
	.loc 2 91 14 view .LVU20
	.loc 2 91 14 is_stmt 0 view .LVU21
.LBE648:
.LBB649:
.LBI649:
	.file 7 "/opt/venus/walnascar-arm-cortexa8hf-neon/sysroots/cortexa8hf-neon-oe-linux-gnueabi/usr/include/qt6/QtCore/qarraydataops.h"
	.loc 7 82 10 is_stmt 1 view .LVU22
	.loc 7 82 10 is_stmt 0 view .LVU23
.LBE649:
.LBB650:
.LBI650:
	.loc 3 159 17 is_stmt 1 view .LVU24
.LBB651:
@ /opt/venus/walnascar-arm-cortexa8hf-neon/sysroots/cortexa8hf-neon-oe-linux-gnueabi/usr/include/qt6/QtCore/qarraydata.h:162:         QArrayData::deallocate(data, sizeof(T), alignof(AlignmentDummy));
	.loc 3 162 31 is_stmt 0 view .LVU25
	ldr	r0, [r4]	@, MEM[(struct Data * *)this_4(D)]
.LVL7:
	.loc 3 162 31 view .LVU26
	mov	r2, #8	@,
	mov	r1, #2	@,
	bl	_ZN10QArrayData10deallocateEPS_ii		@
.LVL8:
	.loc 3 162 31 view .LVU27
.LBE651:
.LBE650:
.LBE647:
@ /opt/venus/walnascar-arm-cortexa8hf-neon/sysroots/cortexa8hf-neon-oe-linux-gnueabi/usr/include/qt6/QtCore/qarraydatapointer.h:112:     }
	.loc 2 112 5 view .LVU28
	mov	r0, r4	@, this
	pop	{r4, pc}	@
	.cfi_endproc
.LFE8859:
	.cantunwind
	.fnend
	.size	_ZN17QArrayDataPointerIDsED2Ev, .-_ZN17QArrayDataPointerIDsED2Ev
	.weak	_ZN17QArrayDataPointerIDsED1Ev
	.set	_ZN17QArrayDataPointerIDsED1Ev,_ZN17QArrayDataPointerIDsED2Ev
	.section	.text._ZN17QArrayDataPointerI7QStringED2Ev,"axG",%progbits,_ZN17QArrayDataPointerI7QStringED5Ev,comdat
	.align	2
	.weak	_ZN17QArrayDataPointerI7QStringED2Ev
	.syntax unified
	.arm
	.type	_ZN17QArrayDataPointerI7QStringED2Ev, %function
_ZN17QArrayDataPointerI7QStringED2Ev:
	.fnstart
.LVL9:
.LFB8954:
	.loc 2 106 5 is_stmt 1 view -0
	.cfi_startproc
	@ args = 0, pretend = 0, frame = 8
	@ frame_needed = 0, uses_anonymous_args = 0
	.loc 2 106 5 is_stmt 0 view .LVU30
	ldr	r3, [r0]	@ _8, MEM[(struct Data * *)this_3(D)]
	push	{r4, r5, r6, lr}	@
	.cfi_def_cfa_offset 16
	.cfi_offset 4, -16
	.cfi_offset 5, -12
	.cfi_offset 6, -8
	.cfi_offset 14, -4
.LBB709:
.LBB710:
.LBB711:
@ /opt/venus/walnascar-arm-cortexa8hf-neon/sysroots/cortexa8hf-neon-oe-linux-gnueabi/usr/include/qt6/QtCore/qarraydatapointer.h:452:     bool deref() noexcept { return !d || d->deref(); }
	.loc 2 452 39 view .LVU31
	cmp	r3, #0	@ _8,
.LBE711:
.LBE710:
.LBE709:
@ /opt/venus/walnascar-arm-cortexa8hf-neon/sysroots/cortexa8hf-neon-oe-linux-gnueabi/usr/include/qt6/QtCore/qarraydatapointer.h:106:     ~QArrayDataPointer()
	.loc 2 106 5 view .LVU32
	sub	sp, sp, #8	@,,
	.cfi_def_cfa_offset 24
@ /opt/venus/walnascar-arm-cortexa8hf-neon/sysroots/cortexa8hf-neon-oe-linux-gnueabi/usr/include/qt6/QtCore/qarraydatapointer.h:106:     ~QArrayDataPointer()
	.loc 2 106 5 view .LVU33
	mov	r6, r0	@ this, this
.LBB724:
.LBB723:
.LBI710:
	.loc 2 452 10 is_stmt 1 view .LVU34
.LVL10:
.LBB722:
@ /opt/venus/walnascar-arm-cortexa8hf-neon/sysroots/cortexa8hf-neon-oe-linux-gnueabi/usr/include/qt6/QtCore/qarraydatapointer.h:452:     bool deref() noexcept { return !d || d->deref(); }
	.loc 2 452 39 is_stmt 0 view .LVU35
	beq	.L11		@,
.LVL11:
.LBB712:
.LBI712:
	.loc 3 64 10 is_stmt 1 view .LVU36
	.loc 3 66 9 view .LVU37
.LBB713:
.LBI713:
	.loc 4 48 10 view .LVU38
.LBB714:
.LBI714:
	.loc 5 263 24 view .LVU39
.LBB715:
.LBI715:
	.loc 6 639 7 view .LVU40
.LBB716:
@ /opt/venus/walnascar-arm-cortexa8hf-neon/sysroots/cortexa8hf-neon-oe-linux-gnueabi/usr/include/c++/15.1.0/bits/atomic_base.h:641:       { return __atomic_fetch_sub(&_M_i, __i, int(__m)); }
	.loc 6 641 34 is_stmt 0 view .LVU41
	dmb	ish	
.L20:
	ldrex	r2, [r3]	@ _11,* _8
	sub	r2, r2, #1	@ _11, _11,
	strex	r1, r2, [r3]	@ tmp142, _11,* _8
	cmp	r1, #0	@ tmp142,
	bne	.L20		@,
.LBE716:
.LBE715:
.LBE714:
.LBE713:
.LBE712:
@ /opt/venus/walnascar-arm-cortexa8hf-neon/sysroots/cortexa8hf-neon-oe-linux-gnueabi/usr/include/qt6/QtCore/qarraydatapointer.h:452:     bool deref() noexcept { return !d || d->deref(); }
	.loc 2 452 39 discriminator 3 view .LVU42
	cmp	r2, #0	@ _11,
.LBB721:
.LBB720:
.LBB719:
.LBB718:
.LBB717:
@ /opt/venus/walnascar-arm-cortexa8hf-neon/sysroots/cortexa8hf-neon-oe-linux-gnueabi/usr/include/c++/15.1.0/bits/atomic_base.h:641:       { return __atomic_fetch_sub(&_M_i, __i, int(__m)); }
	.loc 6 641 34 view .LVU43
	dmb	ish	
.LVL12:
	.loc 6 641 34 view .LVU44
.LBE717:
.LBE718:
.LBE719:
.LBE720:
.LBE721:
@ /opt/venus/walnascar-arm-cortexa8hf-neon/sysroots/cortexa8hf-neon-oe-linux-gnueabi/usr/include/qt6/QtCore/qarraydatapointer.h:452:     bool deref() noexcept { return !d || d->deref(); }
	.loc 2 452 39 discriminator 3 view .LVU45
	bne	.L11		@,
.LVL13:
	.loc 2 452 39 discriminator 3 view .LVU46
.LBE722:
.LBE723:
.LBE724:
.LBB725:
.LBI725:
	.loc 2 106 5 is_stmt 1 view .LVU47
.LBB726:
.LBB727:
.LBI727:
	.loc 2 91 14 view .LVU48
	.loc 2 91 14 is_stmt 0 view .LVU49
.LBE727:
.LBB728:
.LBI728:
	.loc 7 342 10 is_stmt 1 view .LVU50
.LBB729:
.LBI729:
	.loc 2 122 8 view .LVU51
.LBB730:
.LBI730:
	.loc 2 119 8 view .LVU52
.LBE730:
.LBE729:
.LBB731:
.LBB732:
@ /opt/venus/walnascar-arm-cortexa8hf-neon/sysroots/cortexa8hf-neon-oe-linux-gnueabi/usr/include/qt6/QtCore/qarraydatapointer.h:123:     T *end() noexcept { return data() + size; }
	.loc 2 123 39 is_stmt 0 discriminator 1 view .LVU53
	ldmib	r6, {r3, r5}	@ this,,
	mov	r2, #12	@ tmp134,
@ /opt/venus/walnascar-arm-cortexa8hf-neon/sysroots/cortexa8hf-neon-oe-linux-gnueabi/usr/include/qt6/QtCore/qarraydatapointer.h:123:     T *end() noexcept { return data() + size; }
	.loc 2 123 41 discriminator 1 view .LVU54
	mla	r5, r2, r5, r3	@ _19, tmp134, this_3(D)->size, __first
.LVL14:
	.loc 2 123 41 discriminator 1 view .LVU55
.LBE732:
.LBE731:
.LBB733:
.LBI733:
	.file 8 "/opt/venus/walnascar-arm-cortexa8hf-neon/sysroots/cortexa8hf-neon-oe-linux-gnueabi/usr/include/c++/15.1.0/bits/stl_construct.h"
	.loc 8 287 5 is_stmt 1 view .LVU56
.LBB734:
.LBI734:
	.loc 8 202 5 view .LVU57
.LBB735:
	.loc 8 211 17 discriminator 1 view .LVU58
	cmp	r3, r5	@ __first, _19
	beq	.L13		@,
	add	r3, r3, r2	@ __first, __first,
.LVL15:
	.loc 8 211 17 is_stmt 0 discriminator 1 view .LVU59
	mov	r4, r3	@ ivtmp.180, __first
.LVL16:
.L17:
.LBB736:
.LBI736:
	.loc 8 161 5 is_stmt 1 view .LVU60
.LBB737:
.LBI737:
	.file 9 "/opt/venus/walnascar-arm-cortexa8hf-neon/sysroots/cortexa8hf-neon-oe-linux-gnueabi/usr/include/qt6/QtCore/qstring.h"
	.loc 9 1446 1 view .LVU61
.LBB738:
.LBB739:
.LBI739:
	.loc 2 106 5 view .LVU62
	ldr	r2, [r4, #-12]	@ _24, MEM[(struct Data * *)_21 + 4294967284B]
.LBB740:
.LBI740:
	.loc 2 452 10 view .LVU63
.LVL17:
.LBB741:
.LBB742:
.LBI742:
	.loc 3 64 10 view .LVU64
	.loc 3 66 9 view .LVU65
.LBB743:
.LBI743:
	.loc 4 48 10 view .LVU66
.LBB744:
.LBI744:
	.loc 5 263 24 view .LVU67
.LBB745:
.LBI745:
	.loc 6 639 7 view .LVU68
.LBE745:
.LBE744:
.LBE743:
.LBE742:
@ /opt/venus/walnascar-arm-cortexa8hf-neon/sysroots/cortexa8hf-neon-oe-linux-gnueabi/usr/include/qt6/QtCore/qarraydatapointer.h:452:     bool deref() noexcept { return !d || d->deref(); }
	.loc 2 452 39 is_stmt 0 view .LVU69
	cmp	r2, #0	@ _24,
	beq	.L15		@,
.LBB754:
.LBB752:
.LBB750:
.LBB748:
.LBB746:
@ /opt/venus/walnascar-arm-cortexa8hf-neon/sysroots/cortexa8hf-neon-oe-linux-gnueabi/usr/include/c++/15.1.0/bits/atomic_base.h:641:       { return __atomic_fetch_sub(&_M_i, __i, int(__m)); }
	.loc 6 641 34 view .LVU70
	dmb	ish	
.L19:
	ldrex	r0, [r2]	@ _28,* _24
	sub	r0, r0, #1	@ _28, _28,
	strex	r1, r0, [r2]	@ tmp143, _28,* _24
	cmp	r1, #0	@ tmp143,
	bne	.L19		@,
.LBE746:
.LBE748:
.LBE750:
.LBE752:
.LBE754:
@ /opt/venus/walnascar-arm-cortexa8hf-neon/sysroots/cortexa8hf-neon-oe-linux-gnueabi/usr/include/qt6/QtCore/qarraydatapointer.h:452:     bool deref() noexcept { return !d || d->deref(); }
	.loc 2 452 39 discriminator 3 view .LVU71
	cmp	r0, #0	@ _28,
.LBE741:
.LBE740:
.LBB758:
.LBB759:
.LBB760:
@ /opt/venus/walnascar-arm-cortexa8hf-neon/sysroots/cortexa8hf-neon-oe-linux-gnueabi/usr/include/qt6/QtCore/qarraydata.h:162:         QArrayData::deallocate(data, sizeof(T), alignof(AlignmentDummy));
	.loc 3 162 31 view .LVU72
	mov	r2, #8	@,
.LVL18:
	.loc 3 162 31 view .LVU73
	mov	r1, #2	@,
.LBE760:
.LBE759:
.LBE758:
.LBB766:
.LBB756:
.LBB755:
.LBB753:
.LBB751:
.LBB749:
.LBB747:
@ /opt/venus/walnascar-arm-cortexa8hf-neon/sysroots/cortexa8hf-neon-oe-linux-gnueabi/usr/include/c++/15.1.0/bits/atomic_base.h:641:       { return __atomic_fetch_sub(&_M_i, __i, int(__m)); }
	.loc 6 641 34 view .LVU74
	dmb	ish	
.LVL19:
	.loc 6 641 34 view .LVU75
.LBE747:
.LBE749:
.LBE751:
.LBE753:
.LBE755:
.LBE756:
.LBE766:
.LBB767:
.LBI758:
	.loc 2 106 5 is_stmt 1 view .LVU76
.LBB762:
.LBI762:
	.loc 2 91 14 view .LVU77
	.loc 2 91 14 is_stmt 0 view .LVU78
.LBE762:
.LBB763:
.LBI763:
	.loc 7 82 10 is_stmt 1 view .LVU79
	.loc 7 82 10 is_stmt 0 view .LVU80
.LBE763:
.LBB764:
.LBI759:
	.loc 3 159 17 is_stmt 1 view .LVU81
.LBE764:
.LBE767:
.LBB768:
.LBB757:
@ /opt/venus/walnascar-arm-cortexa8hf-neon/sysroots/cortexa8hf-neon-oe-linux-gnueabi/usr/include/qt6/QtCore/qarraydatapointer.h:452:     bool deref() noexcept { return !d || d->deref(); }
	.loc 2 452 39 is_stmt 0 discriminator 3 view .LVU82
	bne	.L15		@,
.LBE757:
.LBE768:
.LBB769:
.LBB765:
.LBB761:
@ /opt/venus/walnascar-arm-cortexa8hf-neon/sysroots/cortexa8hf-neon-oe-linux-gnueabi/usr/include/qt6/QtCore/qarraydata.h:162:         QArrayData::deallocate(data, sizeof(T), alignof(AlignmentDummy));
	.loc 3 162 31 view .LVU83
	ldr	r0, [r4, #-12]	@, MEM[(struct Data * *)_21 + 4294967284B]
	str	r3, [sp, #4]	@ __first, %sfp
	bl	_ZN10QArrayData10deallocateEPS_ii		@
.LVL20:
	.loc 3 162 31 view .LVU84
	ldr	r3, [sp, #4]	@ __first, %sfp
.LVL21:
.L15:
	.loc 3 162 31 view .LVU85
.LBE761:
.LBE765:
.LBE769:
.LBE739:
.LBE738:
.LBE737:
.LBE736:
	.loc 8 211 2 is_stmt 1 discriminator 2 view .LVU86
	.loc 8 211 17 discriminator 1 view .LVU87
	cmp	r5, r3	@ _19, __first
	add	r4, r4, #12	@ ivtmp.180, ivtmp.180,
	add	r3, r3, #12	@ __first, __first,
.LVL22:
	.loc 8 211 17 is_stmt 0 discriminator 1 view .LVU88
	bne	.L17		@,
.LVL23:
.L13:
	.loc 8 211 17 discriminator 1 view .LVU89
.LBE735:
.LBE734:
.LBE733:
.LBE728:
.LBB770:
.LBI770:
	.loc 3 159 17 is_stmt 1 view .LVU90
.LBB771:
@ /opt/venus/walnascar-arm-cortexa8hf-neon/sysroots/cortexa8hf-neon-oe-linux-gnueabi/usr/include/qt6/QtCore/qarraydata.h:162:         QArrayData::deallocate(data, sizeof(T), alignof(AlignmentDummy));
	.loc 3 162 31 is_stmt 0 view .LVU91
	ldr	r0, [r6]	@, this_3(D)->d
	mov	r2, #8	@,
	mov	r1, #12	@,
	bl	_ZN10QArrayData10deallocateEPS_ii		@
.LVL24:
.L11:
	.loc 3 162 31 view .LVU92
.LBE771:
.LBE770:
.LBE726:
.LBE725:
@ /opt/venus/walnascar-arm-cortexa8hf-neon/sysroots/cortexa8hf-neon-oe-linux-gnueabi/usr/include/qt6/QtCore/qarraydatapointer.h:112:     }
	.loc 2 112 5 view .LVU93
	mov	r0, r6	@, this
	add	sp, sp, #8	@,,
	.cfi_def_cfa_offset 16
	@ sp needed	@
	pop	{r4, r5, r6, pc}	@
	.loc 2 112 5 view .LVU94
	.cfi_endproc
.LFE8954:
	.cantunwind
	.fnend
	.size	_ZN17QArrayDataPointerI7QStringED2Ev, .-_ZN17QArrayDataPointerI7QStringED2Ev
	.weak	_ZN17QArrayDataPointerI7QStringED1Ev
	.set	_ZN17QArrayDataPointerI7QStringED1Ev,_ZN17QArrayDataPointerI7QStringED2Ev
	.section	.text._ZN17QArrayDataPointerI7QStringE17reallocateAndGrowEN10QArrayData14GrowthPositionEiPS1_,"axG",%progbits,_ZN17QArrayDataPointerI7QStringE17reallocateAndGrowEN10QArrayData14GrowthPositionEiPS1_,comdat
	.align	2
	.weak	_ZN17QArrayDataPointerI7QStringE17reallocateAndGrowEN10QArrayData14GrowthPositionEiPS1_
	.syntax unified
	.arm
	.type	_ZN17QArrayDataPointerI7QStringE17reallocateAndGrowEN10QArrayData14GrowthPositionEiPS1_, %function
_ZN17QArrayDataPointerI7QStringE17reallocateAndGrowEN10QArrayData14GrowthPositionEiPS1_:
	.fnstart
.LVL25:
.LFB9535:
	.loc 2 218 36 is_stmt 1 view -0
	.cfi_startproc
	@ args = 0, pretend = 0, frame = 16
	@ frame_needed = 0, uses_anonymous_args = 0
	.loc 2 218 36 is_stmt 0 view .LVU96
	push	{r4, r5, r6, r7, r8, r9, lr}	@
	.save {r4, r5, r6, r7, r8, r9, lr}
	.cfi_def_cfa_offset 28
	.cfi_offset 4, -28
	.cfi_offset 5, -24
	.cfi_offset 6, -20
	.cfi_offset 7, -16
	.cfi_offset 8, -12
	.cfi_offset 9, -8
	.cfi_offset 14, -4
	mov	r5, r3	@ old, old
@ /opt/venus/walnascar-arm-cortexa8hf-neon/sysroots/cortexa8hf-neon-oe-linux-gnueabi/usr/include/qt6/QtCore/qarraydatapointer.h:222:             if (where == QArrayData::GrowsAtEnd && !old && !needsDetach() && n > 0) {
	.loc 2 222 75 view .LVU97
	orrs	r3, r3, r1	@ _280, old, where
.LVL26:
@ /opt/venus/walnascar-arm-cortexa8hf-neon/sysroots/cortexa8hf-neon-oe-linux-gnueabi/usr/include/qt6/QtCore/qarraydatapointer.h:218:     Q_NEVER_INLINE void reallocateAndGrow(QArrayData::GrowthPosition where, qsizetype n,
	.loc 2 218 36 view .LVU98
	.pad #28
	sub	sp, sp, #28	@,,
	.cfi_def_cfa_offset 56
@ /opt/venus/walnascar-arm-cortexa8hf-neon/sysroots/cortexa8hf-neon-oe-linux-gnueabi/usr/include/qt6/QtCore/qarraydatapointer.h:218:     Q_NEVER_INLINE void reallocateAndGrow(QArrayData::GrowthPosition where, qsizetype n,
	.loc 2 218 36 view .LVU99
	mov	r7, r1	@ where, where
	mov	r4, r0	@ this, this
	mov	r6, r2	@ n, n
@ /opt/venus/walnascar-arm-cortexa8hf-neon/sysroots/cortexa8hf-neon-oe-linux-gnueabi/usr/include/qt6/QtCore/qarraydatapointer.h:222:             if (where == QArrayData::GrowsAtEnd && !old && !needsDetach() && n > 0) {
	.loc 2 222 75 view .LVU100
	beq	.L109		@,
.LVL27:
.LBB979:
.LBI979:
	.loc 2 480 30 is_stmt 1 view .LVU101
.LBB980:
.LBB981:
.LBI981:
	.loc 2 450 15 view .LVU102
.LBB982:
@ /opt/venus/walnascar-arm-cortexa8hf-neon/sysroots/cortexa8hf-neon-oe-linux-gnueabi/usr/include/qt6/QtCore/qarraydatapointer.h:450:     qsizetype constAllocatedCapacity() const noexcept { return d ? d->constAllocatedCapacity() : 0; }
	.loc 2 450 64 is_stmt 0 view .LVU103
	ldr	r0, [r0]	@ _298, MEM[(const struct QArrayDataPointer *)this_25(D)].d
.LVL28:
@ /opt/venus/walnascar-arm-cortexa8hf-neon/sysroots/cortexa8hf-neon-oe-linux-gnueabi/usr/include/qt6/QtCore/qarraydatapointer.h:450:     qsizetype constAllocatedCapacity() const noexcept { return d ? d->constAllocatedCapacity() : 0; }
	.loc 2 450 66 view .LVU104
	cmp	r0, #0	@ _298,
	beq	.L24		@,
.LBE982:
.LBE981:
.LBB990:
.LBB991:
@ /opt/venus/walnascar-arm-cortexa8hf-neon/sysroots/cortexa8hf-neon-oe-linux-gnueabi/usr/include/qt6/QtCore/qminmax.h:21: constexpr inline const T &qMax(const T &a, const T &b) { return (a < b) ? b : a; }
	.file 10 "/opt/venus/walnascar-arm-cortexa8hf-neon/sysroots/cortexa8hf-neon-oe-linux-gnueabi/usr/include/qt6/QtCore/qminmax.h"
	.loc 10 21 68 view .LVU105
	ldr	ip, [r4, #8]	@ _297, MEM[(const int &)this_25(D) + 8]
.LVL29:
	.loc 10 21 68 view .LVU106
.LBE991:
.LBE990:
.LBB994:
.LBB987:
.LBB983:
.LBI983:
	.loc 3 51 15 is_stmt 1 view .LVU107
.LBB984:
	.loc 3 53 9 view .LVU108
@ /opt/venus/walnascar-arm-cortexa8hf-neon/sysroots/cortexa8hf-neon-oe-linux-gnueabi/usr/include/qt6/QtCore/qarraydata.h:53:         return alloc;
	.loc 3 53 16 is_stmt 0 view .LVU109
	ldr	r2, [r0, #8]	@ _284, MEM[(const struct QArrayData *)_74].alloc
.LVL30:
	.loc 3 53 16 view .LVU110
.LBE984:
.LBE983:
.LBE987:
.LBE994:
.LBB995:
.LBI990:
	.loc 10 21 27 is_stmt 1 view .LVU111
	.loc 10 21 27 is_stmt 0 view .LVU112
.LBE995:
@ /opt/venus/walnascar-arm-cortexa8hf-neon/sysroots/cortexa8hf-neon-oe-linux-gnueabi/usr/include/qt6/QtCore/qarraydatapointer.h:486:         qsizetype minimalCapacity = qMax(from.size, from.constAllocatedCapacity()) + n;
	.loc 2 486 19 discriminator 2 view .LVU113
	cmp	r2, ip	@ _284, _297
	addge	r1, r6, r2	@,, minimalCapacity, n, _284
	addlt	r1, r6, ip	@,, minimalCapacity, n, _297
.LVL31:
@ /opt/venus/walnascar-arm-cortexa8hf-neon/sysroots/cortexa8hf-neon-oe-linux-gnueabi/usr/include/qt6/QtCore/qarraydatapointer.h:489:         minimalCapacity -= (position == QArrayData::GrowsAtEnd) ? from.freeSpaceAtEnd() : from.freeSpaceAtBegin();
	.loc 2 489 65 view .LVU114
	cmp	r7, #0	@ where,
	beq	.L28		@,
.LVL32:
.LBB996:
.LBI996:
	.loc 2 465 15 is_stmt 1 view .LVU115
.LBB997:
.LBB998:
.LBI998:
	.loc 3 165 15 view .LVU116
	.loc 3 165 15 is_stmt 0 view .LVU117
.LBE998:
@ /opt/venus/walnascar-arm-cortexa8hf-neon/sysroots/cortexa8hf-neon-oe-linux-gnueabi/usr/include/qt6/QtCore/qarraydatapointer.h:469:         return this->ptr - Data::dataStart(d, alignof(typename Data::AlignmentDummy));
	.loc 2 469 26 discriminator 1 view .LVU118
	ldr	r3, [r4, #4]	@ MEM[(const struct QArrayDataPointer *)this_25(D)].ptr, MEM[(const struct QArrayDataPointer *)this_25(D)].ptr
.LBB1000:
.LBB999:
@ /opt/venus/walnascar-arm-cortexa8hf-neon/sysroots/cortexa8hf-neon-oe-linux-gnueabi/usr/include/qt6/QtCore/qarraydata.h:170:             (quintptr(data) + sizeof(QArrayData) + alignment - 1) & ~(alignment - 1));
	.loc 3 170 62 view .LVU119
	add	ip, r0, #19	@ _330, _298,
@ /opt/venus/walnascar-arm-cortexa8hf-neon/sysroots/cortexa8hf-neon-oe-linux-gnueabi/usr/include/qt6/QtCore/qarraydata.h:170:             (quintptr(data) + sizeof(QArrayData) + alignment - 1) & ~(alignment - 1));
	.loc 3 170 67 view .LVU120
	bic	ip, ip, #7	@ _331, _330,
.LBE999:
.LBE1000:
@ /opt/venus/walnascar-arm-cortexa8hf-neon/sysroots/cortexa8hf-neon-oe-linux-gnueabi/usr/include/qt6/QtCore/qarraydatapointer.h:469:         return this->ptr - Data::dataStart(d, alignof(typename Data::AlignmentDummy));
	.loc 2 469 26 discriminator 1 view .LVU121
	sub	r3, r3, ip	@ _333, MEM[(const struct QArrayDataPointer *)this_25(D)].ptr, _331
@ /opt/venus/walnascar-arm-cortexa8hf-neon/sysroots/cortexa8hf-neon-oe-linux-gnueabi/usr/include/qt6/QtCore/qarraydatapointer.h:469:         return this->ptr - Data::dataStart(d, alignof(typename Data::AlignmentDummy));
	.loc 2 469 85 discriminator 1 view .LVU122
	movw	ip, #43691	@ tmp270,
	movt	ip, 43690	@ tmp270,
	asr	r3, r3, #2	@ tmp268, _333,
.LBE997:
.LBE996:
@ /opt/venus/walnascar-arm-cortexa8hf-neon/sysroots/cortexa8hf-neon-oe-linux-gnueabi/usr/include/qt6/QtCore/qarraydatapointer.h:489:         minimalCapacity -= (position == QArrayData::GrowsAtEnd) ? from.freeSpaceAtEnd() : from.freeSpaceAtBegin();
	.loc 2 489 25 discriminator 6 view .LVU123
	mls	r3, ip, r3, r1	@ _94, tmp270, tmp268, minimalCapacity
.LVL33:
.LBB1001:
.LBI1001:
	.loc 2 457 15 is_stmt 1 view .LVU124
.L31:
.LBB1002:
.LBB1003:
.LBI1003:
	.loc 3 82 15 view .LVU125
.LBB1004:
	.loc 3 84 9 view .LVU126
.LBB1005:
.LBI1005:
	.file 11 "/opt/venus/walnascar-arm-cortexa8hf-neon/sysroots/cortexa8hf-neon-oe-linux-gnueabi/usr/include/qt6/QtCore/qflags.h"
	.loc 11 159 29 view .LVU127
.LBB1006:
.LBB1007:
.LBI1007:
	.loc 11 112 17 view .LVU128
.LBB1008:
.LBI1008:
	.loc 11 89 32 view .LVU129
.LBB1009:
.LBI1009:
	.loc 11 77 31 view .LVU130
	.loc 11 77 31 is_stmt 0 view .LVU131
.LBE1009:
.LBE1008:
.LBE1007:
@ /opt/venus/walnascar-arm-cortexa8hf-neon/sysroots/cortexa8hf-neon-oe-linux-gnueabi/usr/include/qt6/QtCore/qflags.h:159:     constexpr inline QFlags operator&(Enum other) const noexcept { return QFlags(std::in_place, i & Int(other)); }
	.loc 11 159 75 view .LVU132
	ldr	r1, [r0, #4]	@ MEM[(const struct QFlags *)_299 + 4B].D.51804.D.51554.i, MEM[(const struct QFlags *)_299 + 4B].D.51804.D.51554.i
.LBE1006:
.LBE1005:
@ /opt/venus/walnascar-arm-cortexa8hf-neon/sysroots/cortexa8hf-neon-oe-linux-gnueabi/usr/include/qt6/QtCore/qarraydata.h:84:         if (flags & CapacityReserved && newSize < constAllocatedCapacity())
	.loc 3 84 38 discriminator 2 view .LVU133
	tst	r1, #1	@ MEM[(const struct QFlags *)_299 + 4B].D.51804.D.51554.i,
	beq	.L30		@,
@ /opt/venus/walnascar-arm-cortexa8hf-neon/sysroots/cortexa8hf-neon-oe-linux-gnueabi/usr/include/qt6/QtCore/qarraydata.h:84:         if (flags & CapacityReserved && newSize < constAllocatedCapacity())
	.loc 3 84 38 discriminator 5 view .LVU134
	cmp	r3, r2	@ _94, _284
	movlt	r3, r2	@ _94, _284
.LVL34:
.L30:
	.loc 3 84 38 discriminator 5 view .LVU135
.LBE1004:
.LBE1003:
.LBE1002:
.LBE1001:
.LBB1010:
.LBI1010:
	.loc 3 129 60 is_stmt 1 view .LVU136
.LBE1010:
@ /opt/venus/walnascar-arm-cortexa8hf-neon/sysroots/cortexa8hf-neon-oe-linux-gnueabi/usr/include/qt6/QtCore/qarraydatapointer.h:492:         auto [header, dataPtr] = Data::allocate(capacity, grows ? QArrayData::Grow : QArrayData::KeepSize);
	.loc 2 492 48 is_stmt 0 view .LVU137
	cmp	r3, r2	@ _94, _284
.LBB1014:
.LBB1011:
@ /opt/venus/walnascar-arm-cortexa8hf-neon/sysroots/cortexa8hf-neon-oe-linux-gnueabi/usr/include/qt6/QtCore/qarraydata.h:141:             result = QArrayData::allocate(&d, sizeof(T), alignof(AlignmentDummy), capacity, option);
	.loc 3 141 42 view .LVU138
	mov	r1, #12	@,
.LBE1011:
.LBE1014:
@ /opt/venus/walnascar-arm-cortexa8hf-neon/sysroots/cortexa8hf-neon-oe-linux-gnueabi/usr/include/qt6/QtCore/qarraydatapointer.h:492:         auto [header, dataPtr] = Data::allocate(capacity, grows ? QArrayData::Grow : QArrayData::KeepSize);
	.loc 2 492 48 view .LVU139
	movgt	r2, #0	@ _276,
.LVL35:
	.loc 2 492 48 view .LVU140
	movle	r2, #1	@ _276,
.LBB1015:
.LBB1013:
@ /opt/venus/walnascar-arm-cortexa8hf-neon/sysroots/cortexa8hf-neon-oe-linux-gnueabi/usr/include/qt6/QtCore/qarraydata.h:141:             result = QArrayData::allocate(&d, sizeof(T), alignof(AlignmentDummy), capacity, option);
	.loc 3 141 42 view .LVU141
	str	r2, [sp]	@ _276,
	mov	r2, #8	@,
	add	r0, sp, r2	@ tmp343,,
	bl	_ZN10QArrayData8allocateEPPS_iiiNS_16AllocationOptionE		@
.LVL36:
@ /opt/venus/walnascar-arm-cortexa8hf-neon/sysroots/cortexa8hf-neon-oe-linux-gnueabi/usr/include/qt6/QtCore/qarraydata.h:147:         return {static_cast<QTypedArrayData *>(d), static_cast<T *>(result)};
	.loc 3 147 17 view .LVU142
	ldr	r9, [sp, #8]	@ d.34_135, MEM[(struct QArrayData * *)_92]
.LVL37:
.LBB1012:
.LBI1012:
	.file 12 "/opt/venus/walnascar-arm-cortexa8hf-neon/sysroots/cortexa8hf-neon-oe-linux-gnueabi/usr/include/c++/15.1.0/bits/stl_pair.h"
	.loc 12 901 12 is_stmt 1 view .LVU143
	.loc 12 901 12 is_stmt 0 view .LVU144
.LBE1012:
.LBE1013:
.LBE1015:
@ /opt/venus/walnascar-arm-cortexa8hf-neon/sysroots/cortexa8hf-neon-oe-linux-gnueabi/usr/include/qt6/QtCore/qarraydatapointer.h:493:         const bool valid = header != nullptr && dataPtr != nullptr;
	.loc 2 493 46 discriminator 1 view .LVU145
	cmp	r9, #0	@ d.34_135,
	cmpne	r0, #0	@, result,
	mov	r8, r0	@ result, result
	beq	.L32		@,
.LVL38:
@ /opt/venus/walnascar-arm-cortexa8hf-neon/sysroots/cortexa8hf-neon-oe-linux-gnueabi/usr/include/qt6/QtCore/qarraydatapointer.h:500:                 ? n + qMax(0, (header->alloc - from.size - n) / 2)
	.loc 2 500 17 view .LVU146
	cmp	r7, #1	@ where,
@ /opt/venus/walnascar-arm-cortexa8hf-neon/sysroots/cortexa8hf-neon-oe-linux-gnueabi/usr/include/qt6/QtCore/qarraydatapointer.h:500:                 ? n + qMax(0, (header->alloc - from.size - n) / 2)
	.loc 2 500 53 discriminator 1 view .LVU147
	ldr	lr, [r4, #8]	@ dp$8, MEM[(const struct QArrayDataPointer &)this_25(D)].size
.LBB1016:
.LBB1017:
@ /opt/venus/walnascar-arm-cortexa8hf-neon/sysroots/cortexa8hf-neon-oe-linux-gnueabi/usr/include/qt6/QtCore/qarraydatapointer.h:458:     const typename Data::ArrayOptions flags() const noexcept { return d ? d->flags : Data::ArrayOptionDefault; }
	.loc 2 458 71 view .LVU148
	ldr	r3, [r4]	@ pretmp_324, MEM[(const struct QArrayDataPointer *)this_25(D)].d
.LBE1017:
.LBE1016:
@ /opt/venus/walnascar-arm-cortexa8hf-neon/sysroots/cortexa8hf-neon-oe-linux-gnueabi/usr/include/qt6/QtCore/qarraydatapointer.h:500:                 ? n + qMax(0, (header->alloc - from.size - n) / 2)
	.loc 2 500 17 view .LVU149
	beq	.L110		@,
.LVL39:
.LBB1021:
.LBI1021:
	.loc 2 465 15 is_stmt 1 view .LVU150
.LBB1022:
@ /opt/venus/walnascar-arm-cortexa8hf-neon/sysroots/cortexa8hf-neon-oe-linux-gnueabi/usr/include/qt6/QtCore/qarraydatapointer.h:467:         if (d == nullptr)
	.loc 2 467 9 is_stmt 0 view .LVU151
	cmp	r3, #0	@ pretmp_324,
	ldr	r2, [r4, #4]	@ b, MEM[(const struct QArrayDataPointer *)this_25(D)].ptr
	beq	.L39		@,
.LVL40:
.LBB1023:
.LBI1023:
	.loc 3 165 15 is_stmt 1 view .LVU152
.LBB1024:
@ /opt/venus/walnascar-arm-cortexa8hf-neon/sysroots/cortexa8hf-neon-oe-linux-gnueabi/usr/include/qt6/QtCore/qarraydata.h:170:             (quintptr(data) + sizeof(QArrayData) + alignment - 1) & ~(alignment - 1));
	.loc 3 170 62 is_stmt 0 view .LVU153
	add	r1, r3, #19	@ _108, pretmp_324,
@ /opt/venus/walnascar-arm-cortexa8hf-neon/sysroots/cortexa8hf-neon-oe-linux-gnueabi/usr/include/qt6/QtCore/qarraydata.h:170:             (quintptr(data) + sizeof(QArrayData) + alignment - 1) & ~(alignment - 1));
	.loc 3 170 67 view .LVU154
	bic	r1, r1, #7	@ _109, _108,
.LBE1024:
.LBE1023:
@ /opt/venus/walnascar-arm-cortexa8hf-neon/sysroots/cortexa8hf-neon-oe-linux-gnueabi/usr/include/qt6/QtCore/qarraydatapointer.h:469:         return this->ptr - Data::dataStart(d, alignof(typename Data::AlignmentDummy));
	.loc 2 469 26 discriminator 1 view .LVU155
	sub	r1, r2, r1	@ _111, b, _109
.LBE1022:
.LBE1021:
@ /opt/venus/walnascar-arm-cortexa8hf-neon/sysroots/cortexa8hf-neon-oe-linux-gnueabi/usr/include/qt6/QtCore/qarraydatapointer.h:499:         dataPtr += (position == QArrayData::GrowsAtBeginning)
	.loc 2 499 17 view .LVU156
	add	r8, r0, r1	@ result, result, _111
.LVL41:
.LBB1026:
.LBI1016:
	.loc 2 458 39 is_stmt 1 view .LVU157
.L38:
.LBB1018:
@ /opt/venus/walnascar-arm-cortexa8hf-neon/sysroots/cortexa8hf-neon-oe-linux-gnueabi/usr/include/qt6/QtCore/qarraydatapointer.h:458:     const typename Data::ArrayOptions flags() const noexcept { return d ? d->flags : Data::ArrayOptionDefault; }
	.loc 2 458 92 is_stmt 0 discriminator 1 view .LVU158
	ldr	r3, [r3, #4]	@ SR.140, MEM <Int> [(struct Data *)pretmp_324 + 4B]
.LVL42:
.L39:
	.loc 2 458 92 discriminator 1 view .LVU159
.LBE1018:
.LBE1026:
.LBE980:
.LBE979:
@ /opt/venus/walnascar-arm-cortexa8hf-neon/sysroots/cortexa8hf-neon-oe-linux-gnueabi/usr/include/qt6/QtCore/qarraydatapointer.h:229:         if (n > 0)
	.loc 2 229 9 view .LVU160
	cmp	r6, #0	@ n,
.LBB1057:
.LBB1052:
@ /opt/venus/walnascar-arm-cortexa8hf-neon/sysroots/cortexa8hf-neon-oe-linux-gnueabi/usr/include/qt6/QtCore/qarraydatapointer.h:502:         header->flags = from.flags();
	.loc 2 502 35 view .LVU161
	str	r3, [r9, #4]	@ SR.140, MEM[(struct QTypedArrayData *)d.34_135].D.159878.flags
.LVL43:
.LBB1027:
.LBI1027:
	.loc 2 44 15 is_stmt 1 view .LVU162
	.loc 2 44 15 is_stmt 0 view .LVU163
.LBE1027:
.LBE1052:
.LBE1057:
@ /opt/venus/walnascar-arm-cortexa8hf-neon/sysroots/cortexa8hf-neon-oe-linux-gnueabi/usr/include/qt6/QtCore/qarraydatapointer.h:229:         if (n > 0)
	.loc 2 229 9 view .LVU164
	ble	.L41		@,
.LBB1058:
@ /opt/venus/walnascar-arm-cortexa8hf-neon/sysroots/cortexa8hf-neon-oe-linux-gnueabi/usr/include/qt6/QtCore/qarraydatapointer.h:236:         if (size) {
	.loc 2 236 9 view .LVU165
	cmp	lr, #0	@ dp$8,
	beq	.L103		@,
.LVL44:
.L45:
	.loc 2 236 9 view .LVU166
	ldr	r3, [r4]	@ _66, MEM[(struct Data * *)this_25(D)]
.LBB1059:
.LBB1060:
.LBI1060:
	.loc 2 456 10 is_stmt 1 view .LVU167
.LVL45:
	.loc 2 456 10 is_stmt 0 view .LVU168
.LBE1060:
@ /opt/venus/walnascar-arm-cortexa8hf-neon/sysroots/cortexa8hf-neon-oe-linux-gnueabi/usr/include/qt6/QtCore/qarraydatapointer.h:243:                 dp->moveAppend(begin(), begin() + toCopy);
	.loc 2 243 49 discriminator 3 view .LVU169
	mov	r1, #12	@ tmp307,
	mul	r1, r1, lr	@ _321, tmp307, dp$8
.LBB1067:
.LBB1061:
@ /opt/venus/walnascar-arm-cortexa8hf-neon/sysroots/cortexa8hf-neon-oe-linux-gnueabi/usr/include/qt6/QtCore/qarraydatapointer.h:456:     bool needsDetach() const noexcept { return !d || d->needsDetach(); }
	.loc 2 456 51 view .LVU170
	cmp	r3, #0	@ _66,
	beq	.L49		@,
.LVL46:
.LBB1062:
.LBI1062:
	.loc 3 77 10 is_stmt 1 view .LVU171
	.loc 3 79 9 view .LVU172
.LBB1063:
.LBI1063:
	.loc 4 36 7 view .LVU173
.LBB1064:
.LBI1064:
	.loc 5 200 7 view .LVU174
.LBB1065:
.LBI1065:
	.loc 6 494 7 view .LVU175
.LBB1066:
	.loc 6 498 2 view .LVU176
	.loc 6 499 2 view .LVU177
@ /opt/venus/walnascar-arm-cortexa8hf-neon/sysroots/cortexa8hf-neon-oe-linux-gnueabi/usr/include/c++/15.1.0/bits/atomic_base.h:501: 	return __atomic_load_n(&_M_i, int(__m));
	.loc 6 501 24 is_stmt 0 view .LVU178
	ldr	r0, [r3]	@ _157,* _66
.LVL47:
	.loc 6 501 24 view .LVU179
.LBE1066:
.LBE1065:
.LBE1064:
.LBE1063:
.LBE1062:
.LBE1061:
.LBE1067:
@ /opt/venus/walnascar-arm-cortexa8hf-neon/sysroots/cortexa8hf-neon-oe-linux-gnueabi/usr/include/qt6/QtCore/qarraydatapointer.h:240:             if (needsDetach() || old)
	.loc 2 240 31 discriminator 3 view .LVU180
	cmp	r0, #1	@ _157,
	cmple	r5, #0	@, old,
	movne	r0, #1	@ tmp314,
	moveq	r0, #0	@ tmp314,
	beq	.L111		@,
.LVL48:
.L49:
.LBB1068:
.LBI1068:
	.loc 2 122 8 is_stmt 1 view .LVU181
.LBB1069:
.LBI1069:
	.loc 2 119 8 view .LVU182
.LBE1069:
.LBE1068:
@ /opt/venus/walnascar-arm-cortexa8hf-neon/sysroots/cortexa8hf-neon-oe-linux-gnueabi/usr/include/qt6/QtCore/qarraydatapointer.h:241:                 dp->copyAppend(begin(), begin() + toCopy);
	.loc 2 241 49 is_stmt 0 discriminator 3 view .LVU183
	add	r1, r2, r1	@ _13, b, _321
.LBB1072:
.LBB1071:
.LBB1070:
@ /opt/venus/walnascar-arm-cortexa8hf-neon/sysroots/cortexa8hf-neon-oe-linux-gnueabi/usr/include/qt6/QtCore/qarraydatapointer.h:119:     T *data() noexcept { return ptr; }
	.loc 2 119 33 view .LVU184
	mov	r3, r2	@ b, b
.LVL49:
	.loc 2 119 33 view .LVU185
.LBE1070:
.LBE1071:
.LBE1072:
.LBB1073:
.LBI1073:
	.loc 7 282 10 is_stmt 1 view .LVU186
.LBB1074:
@ /opt/venus/walnascar-arm-cortexa8hf-neon/sysroots/cortexa8hf-neon-oe-linux-gnueabi/usr/include/qt6/QtCore/qarraydataops.h:289:         if (b == e) // short-cut and handling the case b and e == nullptr
	.loc 7 289 9 is_stmt 0 view .LVU187
	cmp	r1, r2	@ _13, b
	beq	.L70		@,
.LVL50:
	.loc 7 293 18 is_stmt 1 view .LVU188
	bls	.L70		@,
	.loc 7 293 18 is_stmt 0 view .LVU189
	mov	r2, r8	@ ivtmp.216, result
	mov	lr, #1	@ ivtmp.215,
.LVL51:
	.loc 7 293 18 view .LVU190
	b	.L54		@
.LVL52:
.L71:
	.loc 7 293 18 view .LVU191
	add	lr, lr, #1	@ ivtmp.215, ivtmp.215,
.LVL53:
.L54:
.LBB1075:
.LBI1075:
	.loc 9 1375 1 is_stmt 1 view .LVU192
.LBB1076:
.LBI1076:
	.loc 2 37 5 view .LVU193
.LBB1077:
.LBB1078:
@ /opt/venus/walnascar-arm-cortexa8hf-neon/sysroots/cortexa8hf-neon-oe-linux-gnueabi/usr/include/qt6/QtCore/qarraydatapointer.h:38:         : d(other.d), ptr(other.ptr), size(other.size)
	.loc 2 38 19 is_stmt 0 view .LVU194
	vld1.32	{d7}, [r3]	@ tmp318, MEM <vector(2) unsigned int> [(void *)b_140]
@ /opt/venus/walnascar-arm-cortexa8hf-neon/sysroots/cortexa8hf-neon-oe-linux-gnueabi/usr/include/qt6/QtCore/qarraydatapointer.h:38:         : d(other.d), ptr(other.ptr), size(other.size)
	.loc 2 38 39 view .LVU195
	ldr	ip, [r3, #8]	@ MEM[(int *)b_140 + 8B], MEM[(int *)b_140 + 8B]
.LBB1079:
.LBB1080:
@ /opt/venus/walnascar-arm-cortexa8hf-neon/sysroots/cortexa8hf-neon-oe-linux-gnueabi/usr/include/qt6/QtCore/qarraydatapointer.h:451:     void ref() noexcept { if (d) d->ref(); }
	.loc 2 451 27 view .LVU196
	vmov	r0, s14	@ int	@ tmp344, tmp318
.LBE1080:
.LBE1079:
@ /opt/venus/walnascar-arm-cortexa8hf-neon/sysroots/cortexa8hf-neon-oe-linux-gnueabi/usr/include/qt6/QtCore/qarraydatapointer.h:38:         : d(other.d), ptr(other.ptr), size(other.size)
	.loc 2 38 11 view .LVU197
	vst1.32	{d7}, [r2]	@ tmp318, MEM <vector(2) unsigned int> [(void *)_176]
@ /opt/venus/walnascar-arm-cortexa8hf-neon/sysroots/cortexa8hf-neon-oe-linux-gnueabi/usr/include/qt6/QtCore/qarraydatapointer.h:38:         : d(other.d), ptr(other.ptr), size(other.size)
	.loc 2 38 39 view .LVU198
	str	ip, [r2, #8]	@ MEM[(int *)b_140 + 8B], MEM[(int *)_176 + 8B]
.LVL54:
.LBB1088:
.LBI1079:
	.loc 2 451 10 is_stmt 1 view .LVU199
.LBB1087:
@ /opt/venus/walnascar-arm-cortexa8hf-neon/sysroots/cortexa8hf-neon-oe-linux-gnueabi/usr/include/qt6/QtCore/qarraydatapointer.h:451:     void ref() noexcept { if (d) d->ref(); }
	.loc 2 451 27 is_stmt 0 view .LVU200
	cmp	r0, #0	@ _173
	beq	.L53		@,
.LVL55:
.LBB1081:
.LBI1081:
	.loc 3 57 10 is_stmt 1 view .LVU201
	.loc 3 59 9 view .LVU202
.LBB1082:
.LBI1082:
	.loc 4 47 10 view .LVU203
.LBB1083:
.LBB1084:
.LBI1084:
	.loc 5 244 24 view .LVU204
.LBB1085:
.LBI1085:
	.loc 6 629 7 view .LVU205
.LBB1086:
@ /opt/venus/walnascar-arm-cortexa8hf-neon/sysroots/cortexa8hf-neon-oe-linux-gnueabi/usr/include/c++/15.1.0/bits/atomic_base.h:631:       { return __atomic_fetch_add(&_M_i, __i, int(__m)); }
	.loc 6 631 34 is_stmt 0 view .LVU206
	dmb	ish	
.L107:
	ldrex	r6, [r0]	@ tmp337,* _173
	add	r6, r6, #1	@ tmp337, tmp337,
	strex	ip, r6, [r0]	@ tmp338, tmp337,* _173
	cmp	ip, #0	@ tmp338,
	bne	.L107		@,
	dmb	ish	
.LVL56:
	.loc 6 631 34 view .LVU207
.LBE1086:
.LBE1085:
.LBE1084:
.LBE1083:
.LBE1082:
	.loc 3 60 9 is_stmt 1 view .LVU208
.L53:
	.loc 3 60 9 is_stmt 0 view .LVU209
.LBE1081:
.LBE1087:
.LBE1088:
.LBE1078:
.LBE1077:
.LBE1076:
.LBE1075:
@ /opt/venus/walnascar-arm-cortexa8hf-neon/sysroots/cortexa8hf-neon-oe-linux-gnueabi/usr/include/qt6/QtCore/qarraydataops.h:295:             ++b;
	.loc 7 295 13 view .LVU210
	add	r3, r3, #12	@ b, b,
.LVL57:
	.loc 7 293 18 is_stmt 1 view .LVU211
	add	r2, r2, #12	@ ivtmp.216, ivtmp.216,
	cmp	r1, r3	@ _13, b
	bhi	.L71		@,
.LVL58:
	.loc 7 293 18 is_stmt 0 view .LVU212
.LBE1074:
.LBE1073:
.LBE1059:
.LBE1058:
.LBB1133:
.LBB1134:
.LBB1135:
@ /opt/venus/walnascar-arm-cortexa8hf-neon/sysroots/cortexa8hf-neon-oe-linux-gnueabi/usr/include/qt6/QtCore/qswap.h:31:     T *tmp = lhs;
	.file 13 "/opt/venus/walnascar-arm-cortexa8hf-neon/sysroots/cortexa8hf-neon-oe-linux-gnueabi/usr/include/qt6/QtCore/qswap.h"
	.loc 13 31 8 view .LVU213
	ldr	r3, [r4, #4]	@ b, MEM[(struct QString * &)this_25(D) + 4]
.LVL59:
.L48:
	.loc 13 31 8 view .LVU214
.LBE1135:
.LBE1134:
.LBI1133:
	.loc 2 129 10 is_stmt 1 view .LVU215
.LBB1139:
.LBI1139:
	.loc 13 29 23 view .LVU216
.LBB1140:
@ /opt/venus/walnascar-arm-cortexa8hf-neon/sysroots/cortexa8hf-neon-oe-linux-gnueabi/usr/include/qt6/QtCore/qswap.h:31:     T *tmp = lhs;
	.loc 13 31 8 is_stmt 0 view .LVU217
	ldr	r1, [r4]	@ tmp, MEM[(struct QTypedArrayData * &)this_25(D)]
.LVL60:
	.loc 13 31 8 view .LVU218
.LBE1140:
.LBE1139:
.LBE1133:
@ /opt/venus/walnascar-arm-cortexa8hf-neon/sysroots/cortexa8hf-neon-oe-linux-gnueabi/usr/include/qt6/QtCore/qarraydatapointer.h:248:         if (old)
	.loc 2 248 9 view .LVU219
	cmp	r5, #0	@ old,
.LBB1171:
.LBB1146:
.LBB1147:
@ /opt/venus/walnascar-arm-cortexa8hf-neon/sysroots/cortexa8hf-neon-oe-linux-gnueabi/usr/include/c++/15.1.0/bits/move.h:235:       _Tp __tmp = _GLIBCXX_MOVE(__a);
	.file 14 "/opt/venus/walnascar-arm-cortexa8hf-neon/sysroots/cortexa8hf-neon-oe-linux-gnueabi/usr/include/c++/15.1.0/bits/move.h"
	.loc 14 235 11 view .LVU220
	ldr	r0, [r4, #8]	@ _49, MEM[(type &)this_25(D) + 8]
.LBE1147:
.LBE1146:
.LBB1153:
.LBB1136:
@ /opt/venus/walnascar-arm-cortexa8hf-neon/sysroots/cortexa8hf-neon-oe-linux-gnueabi/usr/include/qt6/QtCore/qswap.h:33:     rhs = tmp;
	.loc 13 33 9 view .LVU221
	moveq	r2, r3	@ tmp, b
@ /opt/venus/walnascar-arm-cortexa8hf-neon/sysroots/cortexa8hf-neon-oe-linux-gnueabi/usr/include/qt6/QtCore/qswap.h:32:     lhs = rhs;
	.loc 13 32 9 view .LVU222
	str	r8, [r4, #4]	@ result, MEM[(struct QString * &)this_25(D) + 4]
.LBE1136:
.LBE1153:
.LBB1154:
.LBB1141:
@ /opt/venus/walnascar-arm-cortexa8hf-neon/sysroots/cortexa8hf-neon-oe-linux-gnueabi/usr/include/qt6/QtCore/qswap.h:33:     rhs = tmp;
	.loc 13 33 9 view .LVU223
	moveq	r6, r1	@ dp$d, tmp
@ /opt/venus/walnascar-arm-cortexa8hf-neon/sysroots/cortexa8hf-neon-oe-linux-gnueabi/usr/include/qt6/QtCore/qswap.h:32:     lhs = rhs;
	.loc 13 32 9 view .LVU224
	str	r9, [r4]	@ d.34_135, MEM[(struct QTypedArrayData * &)this_25(D)]
.LVL61:
	.loc 13 32 9 view .LVU225
.LBE1141:
.LBE1154:
.LBB1155:
.LBI1134:
	.loc 13 29 23 is_stmt 1 view .LVU226
	.loc 13 29 23 is_stmt 0 view .LVU227
.LBE1155:
.LBB1156:
.LBI1146:
	.loc 14 227 5 is_stmt 1 view .LVU228
.LBB1148:
@ /opt/venus/walnascar-arm-cortexa8hf-neon/sysroots/cortexa8hf-neon-oe-linux-gnueabi/usr/include/c++/15.1.0/bits/move.h:237:       __b = _GLIBCXX_MOVE(__tmp);
	.loc 14 237 11 is_stmt 0 view .LVU229
	moveq	r7, r0	@ _53, _49
.LVL62:
@ /opt/venus/walnascar-arm-cortexa8hf-neon/sysroots/cortexa8hf-neon-oe-linux-gnueabi/usr/include/c++/15.1.0/bits/move.h:236:       __a = _GLIBCXX_MOVE(__b);
	.loc 14 236 11 view .LVU230
	str	lr, [r4, #8]	@ dp$8, MEM[(int &)this_25(D) + 8]
.LVL63:
	.loc 14 236 11 view .LVU231
.LBE1148:
.LBE1156:
.LBE1171:
.LBB1172:
.LBI1172:
	.loc 2 129 10 is_stmt 1 view .LVU232
.LBB1173:
.LBB1174:
.LBI1174:
	.loc 13 29 23 view .LVU233
.LBB1175:
@ /opt/venus/walnascar-arm-cortexa8hf-neon/sysroots/cortexa8hf-neon-oe-linux-gnueabi/usr/include/qt6/QtCore/qswap.h:31:     T *tmp = lhs;
	.loc 13 31 8 is_stmt 0 view .LVU234
	ldrne	r6, [r5]	@ dp$d, MEM[(struct QTypedArrayData * &)old_23(D)]
.LBE1175:
.LBE1174:
.LBB1177:
.LBB1178:
	ldrne	r2, [r5, #4]	@ tmp, MEM[(struct QString * &)old_23(D) + 4]
.LBE1178:
.LBE1177:
.LBB1180:
.LBB1181:
@ /opt/venus/walnascar-arm-cortexa8hf-neon/sysroots/cortexa8hf-neon-oe-linux-gnueabi/usr/include/c++/15.1.0/bits/move.h:235:       _Tp __tmp = _GLIBCXX_MOVE(__a);
	.loc 14 235 11 view .LVU235
	ldrne	r7, [r5, #8]	@ _53, MEM[(type &)old_23(D) + 8]
.LBE1181:
.LBE1180:
.LBB1183:
.LBB1176:
@ /opt/venus/walnascar-arm-cortexa8hf-neon/sysroots/cortexa8hf-neon-oe-linux-gnueabi/usr/include/qt6/QtCore/qswap.h:32:     lhs = rhs;
	.loc 13 32 9 view .LVU236
	strne	r1, [r5]	@ tmp, MEM[(struct QTypedArrayData * &)old_23(D)]
.LVL64:
	.loc 13 32 9 view .LVU237
.LBE1176:
.LBE1183:
.LBB1184:
.LBI1177:
	.loc 13 29 23 is_stmt 1 view .LVU238
.LBB1179:
@ /opt/venus/walnascar-arm-cortexa8hf-neon/sysroots/cortexa8hf-neon-oe-linux-gnueabi/usr/include/qt6/QtCore/qswap.h:32:     lhs = rhs;
	.loc 13 32 9 is_stmt 0 view .LVU239
	strne	r3, [r5, #4]	@ b, MEM[(struct QString * &)old_23(D) + 4]
.LVL65:
	.loc 13 32 9 view .LVU240
.LBE1179:
.LBE1184:
.LBB1185:
.LBI1180:
	.loc 14 227 5 is_stmt 1 view .LVU241
.LBB1182:
@ /opt/venus/walnascar-arm-cortexa8hf-neon/sysroots/cortexa8hf-neon-oe-linux-gnueabi/usr/include/c++/15.1.0/bits/move.h:236:       __a = _GLIBCXX_MOVE(__b);
	.loc 14 236 11 is_stmt 0 view .LVU242
	strne	r0, [r5, #8]	@ _49, MEM[(int &)old_23(D) + 8]
.LVL66:
.L55:
	.loc 14 236 11 view .LVU243
.LBE1182:
.LBE1185:
.LBE1173:
.LBE1172:
.LBB1186:
.LBI1186:
	.loc 2 106 5 is_stmt 1 view .LVU244
.LBB1187:
.LBI1187:
	.loc 2 452 10 view .LVU245
.LBB1188:
@ /opt/venus/walnascar-arm-cortexa8hf-neon/sysroots/cortexa8hf-neon-oe-linux-gnueabi/usr/include/qt6/QtCore/qarraydatapointer.h:452:     bool deref() noexcept { return !d || d->deref(); }
	.loc 2 452 39 is_stmt 0 view .LVU246
	cmp	r6, #0	@ dp$d,
	beq	.L22		@,
.LVL67:
.LBB1189:
.LBI1189:
	.loc 3 64 10 is_stmt 1 view .LVU247
	.loc 3 66 9 view .LVU248
.LBB1190:
.LBI1190:
	.loc 4 48 10 view .LVU249
.LBB1191:
.LBI1191:
	.loc 5 263 24 view .LVU250
.LBB1192:
.LBI1192:
	.loc 6 639 7 view .LVU251
.LBB1193:
@ /opt/venus/walnascar-arm-cortexa8hf-neon/sysroots/cortexa8hf-neon-oe-linux-gnueabi/usr/include/c++/15.1.0/bits/atomic_base.h:641:       { return __atomic_fetch_sub(&_M_i, __i, int(__m)); }
	.loc 6 641 34 is_stmt 0 view .LVU252
	dmb	ish	
.L106:
	ldrex	r3, [r6]	@ _194,* dp$d
	sub	r3, r3, #1	@ _194, _194,
	strex	r1, r3, [r6]	@ tmp339, _194,* dp$d
	cmp	r1, #0	@ tmp339,
	bne	.L106		@,
.LBE1193:
.LBE1192:
.LBE1191:
.LBE1190:
.LBE1189:
@ /opt/venus/walnascar-arm-cortexa8hf-neon/sysroots/cortexa8hf-neon-oe-linux-gnueabi/usr/include/qt6/QtCore/qarraydatapointer.h:452:     bool deref() noexcept { return !d || d->deref(); }
	.loc 2 452 39 discriminator 3 view .LVU253
	cmp	r3, #0	@ _194,
.LBB1198:
.LBB1197:
.LBB1196:
.LBB1195:
.LBB1194:
@ /opt/venus/walnascar-arm-cortexa8hf-neon/sysroots/cortexa8hf-neon-oe-linux-gnueabi/usr/include/c++/15.1.0/bits/atomic_base.h:641:       { return __atomic_fetch_sub(&_M_i, __i, int(__m)); }
	.loc 6 641 34 view .LVU254
	dmb	ish	
.LVL68:
	.loc 6 641 34 view .LVU255
.LBE1194:
.LBE1195:
.LBE1196:
.LBE1197:
.LBE1198:
@ /opt/venus/walnascar-arm-cortexa8hf-neon/sysroots/cortexa8hf-neon-oe-linux-gnueabi/usr/include/qt6/QtCore/qarraydatapointer.h:452:     bool deref() noexcept { return !d || d->deref(); }
	.loc 2 452 39 discriminator 3 view .LVU256
	bne	.L22		@,
.LVL69:
	.loc 2 452 39 discriminator 3 view .LVU257
.LBE1188:
.LBE1187:
.LBB1199:
.LBI1199:
	.loc 2 106 5 is_stmt 1 view .LVU258
.LBB1200:
.LBI1200:
	.loc 2 91 14 view .LVU259
	.loc 2 91 14 is_stmt 0 view .LVU260
.LBE1200:
.LBB1201:
.LBI1201:
	.loc 7 342 10 is_stmt 1 view .LVU261
.LBB1202:
.LBI1202:
	.loc 2 123 8 view .LVU262
.LBB1203:
@ /opt/venus/walnascar-arm-cortexa8hf-neon/sysroots/cortexa8hf-neon-oe-linux-gnueabi/usr/include/qt6/QtCore/qarraydatapointer.h:123:     T *end() noexcept { return data() + size; }
	.loc 2 123 39 is_stmt 0 discriminator 1 view .LVU263
	mov	r3, #12	@ tmp321,
@ /opt/venus/walnascar-arm-cortexa8hf-neon/sysroots/cortexa8hf-neon-oe-linux-gnueabi/usr/include/qt6/QtCore/qarraydatapointer.h:123:     T *end() noexcept { return data() + size; }
	.loc 2 123 41 discriminator 1 view .LVU264
	mla	r7, r3, r7, r2	@ _202, tmp321, _53, tmp
.LVL70:
	.loc 2 123 41 discriminator 1 view .LVU265
.LBE1203:
.LBE1202:
.LBB1204:
.LBI1204:
	.loc 8 287 5 is_stmt 1 view .LVU266
.LBB1205:
.LBI1205:
	.loc 8 202 5 view .LVU267
.LBB1206:
	.loc 8 211 17 discriminator 1 view .LVU268
	cmp	r7, r2	@ _202, tmp
	addne	r5, r2, #12	@ tmp, tmp,
	movne	r4, r5	@ ivtmp.209, tmp
.LVL71:
	.loc 8 211 17 is_stmt 0 discriminator 1 view .LVU269
	bne	.L63		@,
	b	.L64		@
.LVL72:
.L112:
	.loc 8 211 17 discriminator 1 view .LVU270
	add	r5, r5, #12	@ tmp, tmp,
.LVL73:
.L63:
.LBB1207:
.LBI1207:
	.loc 8 161 5 is_stmt 1 view .LVU271
.LBB1208:
.LBI1208:
	.loc 9 1446 1 view .LVU272
.LBB1209:
.LBB1210:
.LBI1210:
	.loc 2 106 5 view .LVU273
	ldr	r3, [r4, #-12]	@ _207, MEM[(struct Data * *)_204 + 4294967284B]
.LBB1211:
.LBI1211:
	.loc 2 452 10 view .LVU274
.LVL74:
.LBB1212:
@ /opt/venus/walnascar-arm-cortexa8hf-neon/sysroots/cortexa8hf-neon-oe-linux-gnueabi/usr/include/qt6/QtCore/qarraydatapointer.h:452:     bool deref() noexcept { return !d || d->deref(); }
	.loc 2 452 39 is_stmt 0 view .LVU275
	cmp	r3, #0	@ _207,
	beq	.L61		@,
.LVL75:
.LBB1213:
.LBI1213:
	.loc 3 64 10 is_stmt 1 view .LVU276
	.loc 3 66 9 view .LVU277
.LBB1214:
.LBI1214:
	.loc 4 48 10 view .LVU278
.LBB1215:
.LBI1215:
	.loc 5 263 24 view .LVU279
.LBB1216:
.LBI1216:
	.loc 6 639 7 view .LVU280
.LBB1217:
@ /opt/venus/walnascar-arm-cortexa8hf-neon/sysroots/cortexa8hf-neon-oe-linux-gnueabi/usr/include/c++/15.1.0/bits/atomic_base.h:641:       { return __atomic_fetch_sub(&_M_i, __i, int(__m)); }
	.loc 6 641 34 is_stmt 0 view .LVU281
	dmb	ish	
.L105:
	ldrex	r2, [r3]	@ _211,* _207
	sub	r2, r2, #1	@ _211, _211,
	strex	r1, r2, [r3]	@ tmp340, _211,* _207
	cmp	r1, #0	@ tmp340,
	bne	.L105		@,
.LBE1217:
.LBE1216:
.LBE1215:
.LBE1214:
.LBE1213:
@ /opt/venus/walnascar-arm-cortexa8hf-neon/sysroots/cortexa8hf-neon-oe-linux-gnueabi/usr/include/qt6/QtCore/qarraydatapointer.h:452:     bool deref() noexcept { return !d || d->deref(); }
	.loc 2 452 39 discriminator 3 view .LVU282
	cmp	r2, #0	@ _211,
.LBB1222:
.LBB1221:
.LBB1220:
.LBB1219:
.LBB1218:
@ /opt/venus/walnascar-arm-cortexa8hf-neon/sysroots/cortexa8hf-neon-oe-linux-gnueabi/usr/include/c++/15.1.0/bits/atomic_base.h:641:       { return __atomic_fetch_sub(&_M_i, __i, int(__m)); }
	.loc 6 641 34 view .LVU283
	dmb	ish	
.LVL76:
	.loc 6 641 34 view .LVU284
.LBE1218:
.LBE1219:
.LBE1220:
.LBE1221:
.LBE1222:
@ /opt/venus/walnascar-arm-cortexa8hf-neon/sysroots/cortexa8hf-neon-oe-linux-gnueabi/usr/include/qt6/QtCore/qarraydatapointer.h:452:     bool deref() noexcept { return !d || d->deref(); }
	.loc 2 452 39 discriminator 3 view .LVU285
	bne	.L61		@,
.LVL77:
	.loc 2 452 39 discriminator 3 view .LVU286
.LBE1212:
.LBE1211:
.LBB1223:
.LBI1223:
	.loc 2 106 5 is_stmt 1 view .LVU287
.LBB1224:
.LBI1224:
	.loc 2 91 14 view .LVU288
	.loc 2 91 14 is_stmt 0 view .LVU289
.LBE1224:
.LBB1225:
.LBI1225:
	.loc 7 82 10 is_stmt 1 view .LVU290
	.loc 7 82 10 is_stmt 0 view .LVU291
.LBE1225:
.LBB1226:
.LBI1226:
	.loc 3 159 17 is_stmt 1 view .LVU292
.LBB1227:
@ /opt/venus/walnascar-arm-cortexa8hf-neon/sysroots/cortexa8hf-neon-oe-linux-gnueabi/usr/include/qt6/QtCore/qarraydata.h:162:         QArrayData::deallocate(data, sizeof(T), alignof(AlignmentDummy));
	.loc 3 162 31 is_stmt 0 view .LVU293
	ldr	r0, [r4, #-12]	@, MEM[(struct Data * *)_204 + 4294967284B]
	mov	r2, #8	@,
	mov	r1, #2	@,
	bl	_ZN10QArrayData10deallocateEPS_ii		@
.LVL78:
.L61:
	.loc 3 162 31 view .LVU294
.LBE1227:
.LBE1226:
.LBE1223:
.LBE1210:
.LBE1209:
.LBE1208:
.LBE1207:
	.loc 8 211 2 is_stmt 1 discriminator 2 view .LVU295
	.loc 8 211 17 discriminator 1 view .LVU296
	cmp	r7, r5	@ _202, tmp
	add	r4, r4, #12	@ ivtmp.209, ivtmp.209,
	bne	.L112		@,
.LVL79:
.L64:
	.loc 8 211 17 is_stmt 0 discriminator 1 view .LVU297
.LBE1206:
.LBE1205:
.LBE1204:
.LBE1201:
.LBB1228:
.LBI1228:
	.loc 3 159 17 is_stmt 1 view .LVU298
.LBB1229:
@ /opt/venus/walnascar-arm-cortexa8hf-neon/sysroots/cortexa8hf-neon-oe-linux-gnueabi/usr/include/qt6/QtCore/qarraydata.h:162:         QArrayData::deallocate(data, sizeof(T), alignof(AlignmentDummy));
	.loc 3 162 31 is_stmt 0 view .LVU299
	mov	r2, #8	@,
	mov	r1, #12	@,
	mov	r0, r6	@, dp$d
.LBE1229:
.LBE1228:
.LBE1199:
.LBE1186:
@ /opt/venus/walnascar-arm-cortexa8hf-neon/sysroots/cortexa8hf-neon-oe-linux-gnueabi/usr/include/qt6/QtCore/qarraydatapointer.h:250:     }
	.loc 2 250 5 view .LVU300
	add	sp, sp, #28	@,,
	.cfi_remember_state
	.cfi_def_cfa_offset 28
	@ sp needed	@
	pop	{r4, r5, r6, r7, r8, r9, lr}	@
	.cfi_restore 14
	.cfi_restore 9
	.cfi_restore 8
	.cfi_restore 7
	.cfi_restore 6
	.cfi_restore 5
	.cfi_restore 4
	.cfi_def_cfa_offset 0
.LVL80:
.LEHB0:
.LBB1233:
.LBB1232:
.LBB1231:
.LBB1230:
@ /opt/venus/walnascar-arm-cortexa8hf-neon/sysroots/cortexa8hf-neon-oe-linux-gnueabi/usr/include/qt6/QtCore/qarraydata.h:162:         QArrayData::deallocate(data, sizeof(T), alignof(AlignmentDummy));
	.loc 3 162 31 view .LVU301
	b	_ZN10QArrayData10deallocateEPS_ii		@
.LVL81:
.L109:
	.cfi_restore_state
	.loc 3 162 31 view .LVU302
	ldr	r1, [r0]	@ _67, MEM[(struct Data * *)this_25(D)]
.LVL82:
	.loc 3 162 31 view .LVU303
.LBE1230:
.LBE1231:
.LBE1232:
.LBE1233:
.LBB1234:
.LBI1234:
	.loc 2 456 10 is_stmt 1 view .LVU304
.LBB1235:
@ /opt/venus/walnascar-arm-cortexa8hf-neon/sysroots/cortexa8hf-neon-oe-linux-gnueabi/usr/include/qt6/QtCore/qarraydatapointer.h:456:     bool needsDetach() const noexcept { return !d || d->needsDetach(); }
	.loc 2 456 51 is_stmt 0 view .LVU305
	cmp	r1, #0	@ _67,
	beq	.L24		@,
.LVL83:
.LBB1236:
.LBI1236:
	.loc 3 77 10 is_stmt 1 view .LVU306
	.loc 3 79 9 view .LVU307
.LBB1237:
.LBI1237:
	.loc 4 36 7 view .LVU308
.LBB1238:
.LBI1238:
	.loc 5 200 7 view .LVU309
.LBB1239:
.LBI1239:
	.loc 6 494 7 view .LVU310
.LBB1240:
	.loc 6 498 2 view .LVU311
	.loc 6 499 2 view .LVU312
@ /opt/venus/walnascar-arm-cortexa8hf-neon/sysroots/cortexa8hf-neon-oe-linux-gnueabi/usr/include/c++/15.1.0/bits/atomic_base.h:501: 	return __atomic_load_n(&_M_i, int(__m));
	.loc 6 501 24 is_stmt 0 view .LVU313
	ldr	r2, [r1]	@ _70,* _67
.LVL84:
	.loc 6 501 24 view .LVU314
.LBE1240:
.LBE1239:
.LBE1238:
.LBE1237:
.LBE1236:
.LBE1235:
.LBE1234:
@ /opt/venus/walnascar-arm-cortexa8hf-neon/sysroots/cortexa8hf-neon-oe-linux-gnueabi/usr/include/qt6/QtCore/qarraydatapointer.h:222:             if (where == QArrayData::GrowsAtEnd && !old && !needsDetach() && n > 0) {
	.loc 2 222 75 discriminator 4 view .LVU315
	cmp	r2, #1	@ tmp249,
.LBB1241:
.LBB1242:
@ /opt/venus/walnascar-arm-cortexa8hf-neon/sysroots/cortexa8hf-neon-oe-linux-gnueabi/usr/include/qt6/QtCore/qarraydatapointer.h:450:     qsizetype constAllocatedCapacity() const noexcept { return d ? d->constAllocatedCapacity() : 0; }
	.loc 2 450 64 view .LVU316
	mov	r0, r1	@ _298, _67
.LVL85:
	.loc 2 450 64 view .LVU317
.LBE1242:
.LBE1241:
@ /opt/venus/walnascar-arm-cortexa8hf-neon/sysroots/cortexa8hf-neon-oe-linux-gnueabi/usr/include/qt6/QtCore/qarraydatapointer.h:222:             if (where == QArrayData::GrowsAtEnd && !old && !needsDetach() && n > 0) {
	.loc 2 222 75 discriminator 4 view .LVU318
	movle	r2, #1	@ tmp249,
	movgt	r2, #0	@ tmp249,
	cmp	r6, #0	@ n,
	movle	r2, #0	@ tmp249,
	cmp	r2, #0	@ tmp249,
	bne	.L113		@,
.LVL86:
.LBB1246:
	.loc 2 480 30 is_stmt 1 view .LVU319
.LBB1053:
.LBB1028:
	.loc 2 450 15 view .LVU320
.LBE1028:
.LBB1029:
.LBB992:
@ /opt/venus/walnascar-arm-cortexa8hf-neon/sysroots/cortexa8hf-neon-oe-linux-gnueabi/usr/include/qt6/QtCore/qminmax.h:21: constexpr inline const T &qMax(const T &a, const T &b) { return (a < b) ? b : a; }
	.loc 10 21 68 is_stmt 0 view .LVU321
	ldr	ip, [r4, #8]	@ _297, MEM[(int *)this_25(D) + 8B]
.LVL87:
	.loc 10 21 68 view .LVU322
.LBE992:
.LBE1029:
.LBB1030:
.LBB988:
.LBB986:
	.loc 3 51 15 is_stmt 1 view .LVU323
.LBB985:
	.loc 3 53 9 view .LVU324
@ /opt/venus/walnascar-arm-cortexa8hf-neon/sysroots/cortexa8hf-neon-oe-linux-gnueabi/usr/include/qt6/QtCore/qarraydata.h:53:         return alloc;
	.loc 3 53 16 is_stmt 0 view .LVU325
	ldr	r2, [r1, #8]	@ _284, MEM[(const struct QArrayData *)pretmp_327].alloc
.LVL88:
	.loc 3 53 16 view .LVU326
.LBE985:
.LBE986:
.LBE988:
.LBE1030:
.LBB1031:
	.loc 10 21 27 is_stmt 1 view .LVU327
	.loc 10 21 27 is_stmt 0 view .LVU328
.LBE1031:
@ /opt/venus/walnascar-arm-cortexa8hf-neon/sysroots/cortexa8hf-neon-oe-linux-gnueabi/usr/include/qt6/QtCore/qarraydatapointer.h:486:         qsizetype minimalCapacity = qMax(from.size, from.constAllocatedCapacity()) + n;
	.loc 2 486 19 discriminator 2 view .LVU329
	cmp	r2, ip	@ _284, _297
	addge	r1, r6, r2	@,, minimalCapacity, n, _284
	addlt	r1, r6, ip	@,, minimalCapacity, n, _297
.LVL89:
.L28:
.LBB1032:
.LBI1032:
	.loc 2 472 15 is_stmt 1 view .LVU330
.LBB1033:
.LBB1034:
.LBI1034:
	.loc 2 465 15 view .LVU331
.LBB1035:
.LBB1036:
.LBI1036:
	.loc 3 165 15 view .LVU332
	.loc 3 165 15 is_stmt 0 view .LVU333
.LBE1036:
@ /opt/venus/walnascar-arm-cortexa8hf-neon/sysroots/cortexa8hf-neon-oe-linux-gnueabi/usr/include/qt6/QtCore/qarraydatapointer.h:469:         return this->ptr - Data::dataStart(d, alignof(typename Data::AlignmentDummy));
	.loc 2 469 26 discriminator 1 view .LVU334
	ldr	r3, [r4, #4]	@ MEM[(const struct QArrayDataPointer *)this_25(D)].ptr, MEM[(const struct QArrayDataPointer *)this_25(D)].ptr
.LBB1038:
.LBB1037:
@ /opt/venus/walnascar-arm-cortexa8hf-neon/sysroots/cortexa8hf-neon-oe-linux-gnueabi/usr/include/qt6/QtCore/qarraydata.h:170:             (quintptr(data) + sizeof(QArrayData) + alignment - 1) & ~(alignment - 1));
	.loc 3 170 62 view .LVU335
	add	lr, r0, #19	@ _124, _298,
@ /opt/venus/walnascar-arm-cortexa8hf-neon/sysroots/cortexa8hf-neon-oe-linux-gnueabi/usr/include/qt6/QtCore/qarraydata.h:170:             (quintptr(data) + sizeof(QArrayData) + alignment - 1) & ~(alignment - 1));
	.loc 3 170 67 view .LVU336
	bic	lr, lr, #7	@ _125, _124,
.LBE1037:
.LBE1038:
@ /opt/venus/walnascar-arm-cortexa8hf-neon/sysroots/cortexa8hf-neon-oe-linux-gnueabi/usr/include/qt6/QtCore/qarraydatapointer.h:469:         return this->ptr - Data::dataStart(d, alignof(typename Data::AlignmentDummy));
	.loc 2 469 26 discriminator 1 view .LVU337
	sub	r3, r3, lr	@ _127, MEM[(const struct QArrayDataPointer *)this_25(D)].ptr, _125
@ /opt/venus/walnascar-arm-cortexa8hf-neon/sysroots/cortexa8hf-neon-oe-linux-gnueabi/usr/include/qt6/QtCore/qarraydatapointer.h:469:         return this->ptr - Data::dataStart(d, alignof(typename Data::AlignmentDummy));
	.loc 2 469 85 discriminator 1 view .LVU338
	movw	lr, #43691	@ tmp260,
	movt	lr, 43690	@ tmp260,
	asr	r3, r3, #2	@ tmp258, _127,
.LBE1035:
.LBE1034:
@ /opt/venus/walnascar-arm-cortexa8hf-neon/sysroots/cortexa8hf-neon-oe-linux-gnueabi/usr/include/qt6/QtCore/qarraydatapointer.h:476:         return d->constAllocatedCapacity() - freeSpaceAtBegin() - this->size;
	.loc 2 476 44 discriminator 2 view .LVU339
	mls	r3, lr, r3, r2	@ _129, tmp260, tmp258, _284
@ /opt/venus/walnascar-arm-cortexa8hf-neon/sysroots/cortexa8hf-neon-oe-linux-gnueabi/usr/include/qt6/QtCore/qarraydatapointer.h:476:         return d->constAllocatedCapacity() - freeSpaceAtBegin() - this->size;
	.loc 2 476 73 discriminator 2 view .LVU340
	sub	r3, r3, ip	@ _131, _129, _297
.LBE1033:
.LBE1032:
@ /opt/venus/walnascar-arm-cortexa8hf-neon/sysroots/cortexa8hf-neon-oe-linux-gnueabi/usr/include/qt6/QtCore/qarraydatapointer.h:489:         minimalCapacity -= (position == QArrayData::GrowsAtEnd) ? from.freeSpaceAtEnd() : from.freeSpaceAtBegin();
	.loc 2 489 25 discriminator 6 view .LVU341
	sub	r3, r1, r3	@ _94, minimalCapacity, _131
.LVL90:
.LBB1039:
	.loc 2 457 15 is_stmt 1 view .LVU342
	b	.L31		@
.LVL91:
.L24:
	.loc 2 457 15 is_stmt 0 view .LVU343
.LBE1039:
.LBB1040:
	.loc 10 21 27 is_stmt 1 view .LVU344
.LBB993:
@ /opt/venus/walnascar-arm-cortexa8hf-neon/sysroots/cortexa8hf-neon-oe-linux-gnueabi/usr/include/qt6/QtCore/qminmax.h:21: constexpr inline const T &qMax(const T &a, const T &b) { return (a < b) ? b : a; }
	.loc 10 21 73 is_stmt 0 view .LVU345
	ldr	r2, [r4, #8]	@ MEM[(const int &)this_25(D) + 8], MEM[(const int &)this_25(D) + 8]
.LVL92:
	.loc 10 21 73 view .LVU346
.LBE993:
.LBE1040:
@ /opt/venus/walnascar-arm-cortexa8hf-neon/sysroots/cortexa8hf-neon-oe-linux-gnueabi/usr/include/qt6/QtCore/qarraydatapointer.h:486:         qsizetype minimalCapacity = qMax(from.size, from.constAllocatedCapacity()) + n;
	.loc 2 486 19 discriminator 2 view .LVU347
	cmp	r2, #0	@ MEM[(const int &)this_25(D) + 8],
	addge	r3, r6, r2	@,, _94, n, MEM[(const int &)this_25(D) + 8]
	addlt	r3, r6, #0	@,, _94, n,
.LVL93:
.LBB1041:
	.loc 2 465 15 is_stmt 1 view .LVU348
	.loc 2 465 15 is_stmt 0 view .LVU349
.LBE1041:
.LBB1042:
	.loc 2 457 15 is_stmt 1 view .LVU350
.LBE1042:
.LBB1043:
.LBB989:
@ /opt/venus/walnascar-arm-cortexa8hf-neon/sysroots/cortexa8hf-neon-oe-linux-gnueabi/usr/include/qt6/QtCore/qarraydatapointer.h:450:     qsizetype constAllocatedCapacity() const noexcept { return d ? d->constAllocatedCapacity() : 0; }
	.loc 2 450 98 is_stmt 0 discriminator 2 view .LVU351
	mov	r2, #0	@ _284,
	b	.L30		@
.LVL94:
.L113:
	.loc 2 450 98 discriminator 2 view .LVU352
.LBE989:
.LBE1043:
.LBE1053:
.LBE1246:
.LBB1247:
.LBI1241:
	.loc 2 450 15 is_stmt 1 view .LVU353
.LBE1247:
.LBB1248:
.LBB1249:
.LBB1250:
.LBB1251:
@ /opt/venus/walnascar-arm-cortexa8hf-neon/sysroots/cortexa8hf-neon-oe-linux-gnueabi/usr/include/qt6/QtCore/qarraydata.h:155:                 QArrayData::reallocateUnaligned(data, dataPointer, sizeof(T), capacity, option);
	.loc 3 155 48 is_stmt 0 view .LVU354
	str	r3, [sp, #4]	@ _280,
.LBE1251:
.LBE1250:
.LBE1249:
.LBE1248:
.LBB1260:
.LBB1261:
.LBB1262:
.LBB1263:
.LBB1264:
.LBB1265:
@ /opt/venus/walnascar-arm-cortexa8hf-neon/sysroots/cortexa8hf-neon-oe-linux-gnueabi/usr/include/qt6/QtCore/qarraydata.h:170:             (quintptr(data) + sizeof(QArrayData) + alignment - 1) & ~(alignment - 1));
	.loc 3 170 62 view .LVU355
	add	r3, r1, #19	@ _144, _67,
.LBE1265:
.LBE1264:
@ /opt/venus/walnascar-arm-cortexa8hf-neon/sysroots/cortexa8hf-neon-oe-linux-gnueabi/usr/include/qt6/QtCore/qarraydatapointer.h:469:         return this->ptr - Data::dataStart(d, alignof(typename Data::AlignmentDummy));
	.loc 2 469 22 view .LVU356
	ldr	r2, [r4, #4]	@ pretmp_325, MEM <const struct QArrayDataPointer> [(struct QString * *)this_25(D)].ptr
.LVL95:
	.loc 2 469 22 view .LVU357
.LBE1263:
.LBE1262:
.LBE1261:
.LBE1260:
.LBB1273:
.LBB1245:
.LBB1243:
.LBI1243:
	.loc 3 51 15 is_stmt 1 view .LVU358
.LBB1244:
	.loc 3 53 9 view .LVU359
	.loc 3 53 9 is_stmt 0 view .LVU360
.LBE1244:
.LBE1243:
.LBE1245:
.LBE1273:
.LBB1274:
.LBI1260:
	.loc 2 472 15 is_stmt 1 view .LVU361
.LBB1272:
.LBB1270:
.LBI1262:
	.loc 2 465 15 view .LVU362
.LBB1268:
.LBB1267:
.LBI1264:
	.loc 3 165 15 view .LVU363
.LBB1266:
@ /opt/venus/walnascar-arm-cortexa8hf-neon/sysroots/cortexa8hf-neon-oe-linux-gnueabi/usr/include/qt6/QtCore/qarraydata.h:170:             (quintptr(data) + sizeof(QArrayData) + alignment - 1) & ~(alignment - 1));
	.loc 3 170 67 is_stmt 0 view .LVU364
	bic	r3, r3, #7	@ _145, _144,
.LBE1266:
.LBE1267:
.LBE1268:
.LBE1270:
@ /opt/venus/walnascar-arm-cortexa8hf-neon/sysroots/cortexa8hf-neon-oe-linux-gnueabi/usr/include/qt6/QtCore/qarraydatapointer.h:476:         return d->constAllocatedCapacity() - freeSpaceAtBegin() - this->size;
	.loc 2 476 73 discriminator 2 view .LVU365
	ldr	r0, [r4, #8]	@ MEM[(const struct QArrayDataPointer *)this_25(D)].size, MEM[(const struct QArrayDataPointer *)this_25(D)].size
.LBB1271:
.LBB1269:
@ /opt/venus/walnascar-arm-cortexa8hf-neon/sysroots/cortexa8hf-neon-oe-linux-gnueabi/usr/include/qt6/QtCore/qarraydatapointer.h:469:         return this->ptr - Data::dataStart(d, alignof(typename Data::AlignmentDummy));
	.loc 2 469 85 discriminator 1 view .LVU366
	movw	ip, #43691	@ tmp299,
@ /opt/venus/walnascar-arm-cortexa8hf-neon/sysroots/cortexa8hf-neon-oe-linux-gnueabi/usr/include/qt6/QtCore/qarraydatapointer.h:469:         return this->ptr - Data::dataStart(d, alignof(typename Data::AlignmentDummy));
	.loc 2 469 26 discriminator 1 view .LVU367
	sub	r3, r2, r3	@ _147, pretmp_325, _145
@ /opt/venus/walnascar-arm-cortexa8hf-neon/sysroots/cortexa8hf-neon-oe-linux-gnueabi/usr/include/qt6/QtCore/qarraydatapointer.h:469:         return this->ptr - Data::dataStart(d, alignof(typename Data::AlignmentDummy));
	.loc 2 469 85 discriminator 1 view .LVU368
	movt	ip, 43690	@ tmp299,
	asr	r3, r3, #2	@ tmp297, _147,
.LBE1269:
.LBE1271:
.LBE1272:
.LBE1274:
@ /opt/venus/walnascar-arm-cortexa8hf-neon/sysroots/cortexa8hf-neon-oe-linux-gnueabi/usr/include/qt6/QtCore/qarraydatapointer.h:223:                 (*this)->reallocate(constAllocatedCapacity() - freeSpaceAtEnd() + n, QArrayData::Grow); // fast path
	.loc 2 223 62 discriminator 3 view .LVU369
	mla	r3, ip, r3, r0	@ _55, tmp299, tmp297, MEM[(const struct QArrayDataPointer *)this_25(D)].size
.LBB1275:
.LBB1257:
.LBB1255:
.LBB1253:
@ /opt/venus/walnascar-arm-cortexa8hf-neon/sysroots/cortexa8hf-neon-oe-linux-gnueabi/usr/include/qt6/QtCore/qarraydata.h:155:                 QArrayData::reallocateUnaligned(data, dataPointer, sizeof(T), capacity, option);
	.loc 3 155 48 view .LVU370
	add	r0, sp, #8	@,,
.LBE1253:
.LBE1255:
.LBE1257:
.LBE1275:
@ /opt/venus/walnascar-arm-cortexa8hf-neon/sysroots/cortexa8hf-neon-oe-linux-gnueabi/usr/include/qt6/QtCore/qarraydatapointer.h:223:                 (*this)->reallocate(constAllocatedCapacity() - freeSpaceAtEnd() + n, QArrayData::Grow); // fast path
	.loc 2 223 36 discriminator 3 view .LVU371
	add	r6, r6, r3	@ n, n, _55
.LVL96:
.LBB1276:
.LBI1248:
	.loc 7 799 10 is_stmt 1 view .LVU372
.LBB1258:
.LBB1256:
.LBI1250:
	.loc 3 151 5 view .LVU373
.LBB1254:
@ /opt/venus/walnascar-arm-cortexa8hf-neon/sysroots/cortexa8hf-neon-oe-linux-gnueabi/usr/include/qt6/QtCore/qarraydata.h:155:                 QArrayData::reallocateUnaligned(data, dataPointer, sizeof(T), capacity, option);
	.loc 3 155 48 is_stmt 0 view .LVU374
	mov	r3, #12	@,
	str	r6, [sp]	@ n,
	bl	_ZN10QArrayData19reallocateUnalignedEPS_PviiNS_16AllocationOptionE		@
.LVL97:
@ /opt/venus/walnascar-arm-cortexa8hf-neon/sysroots/cortexa8hf-neon-oe-linux-gnueabi/usr/include/qt6/QtCore/qarraydata.h:156:         return {static_cast<QTypedArrayData *>(pair.first), static_cast<T *>(pair.second)};
	.loc 3 156 53 view .LVU375
	vldr	d16, [sp, #8]	@, MEM <vector(2) unsigned int> [(void *)_92]
.LVL98:
.LBB1252:
.LBI1252:
	.loc 12 901 12 is_stmt 1 view .LVU376
	.loc 12 901 12 is_stmt 0 view .LVU377
.LBE1252:
.LBE1254:
.LBE1256:
@ /opt/venus/walnascar-arm-cortexa8hf-neon/sysroots/cortexa8hf-neon-oe-linux-gnueabi/usr/include/qt6/QtCore/qarraydataops.h:802:         Q_CHECK_PTR(pair.second);
	.loc 7 802 14 view .LVU378
	vmov.32	r3, d16[1]	@ _190, vect__153.198,
	cmp	r3, #0	@ _190,
	beq	.L114		@,
	.loc 7 802 9 is_stmt 1 view .LVU379
@ /opt/venus/walnascar-arm-cortexa8hf-neon/sysroots/cortexa8hf-neon-oe-linux-gnueabi/usr/include/qt6/QtCore/qarraydataops.h:804:         this->d = pair.first;
	.loc 7 804 17 is_stmt 0 view .LVU380
	vst1.32	{d16}, [r4]	@ vect__153.198, MEM <vector(2) unsigned int> [(void *)this_25(D)]
.LVL99:
.L22:
	.loc 7 804 17 view .LVU381
.LBE1258:
.LBE1276:
@ /opt/venus/walnascar-arm-cortexa8hf-neon/sysroots/cortexa8hf-neon-oe-linux-gnueabi/usr/include/qt6/QtCore/qarraydatapointer.h:250:     }
	.loc 2 250 5 view .LVU382
	add	sp, sp, #28	@,,
	.cfi_remember_state
	.cfi_def_cfa_offset 28
	@ sp needed	@
	pop	{r4, r5, r6, r7, r8, r9, pc}	@
.LVL100:
.L32:
	.cfi_restore_state
.LBB1277:
.LBB1054:
.LBB1044:
.LBI1044:
	.loc 2 44 15 is_stmt 1 view .LVU383
	.loc 2 44 15 is_stmt 0 view .LVU384
.LBE1044:
.LBE1054:
.LBE1277:
@ /opt/venus/walnascar-arm-cortexa8hf-neon/sysroots/cortexa8hf-neon-oe-linux-gnueabi/usr/include/qt6/QtCore/qarraydatapointer.h:229:         if (n > 0)
	.loc 2 229 9 view .LVU385
	cmp	r6, #0	@ n,
	ble	.L115		@,
@ /opt/venus/walnascar-arm-cortexa8hf-neon/sysroots/cortexa8hf-neon-oe-linux-gnueabi/usr/include/qt6/QtCore/qarraydatapointer.h:230:             Q_CHECK_PTR(dp.data());
	.loc 2 230 18 discriminator 1 view .LVU386
	cmp	r0, #0	@ result,
	beq	.L44		@,
	ldmib	r4, {r2, lr}	@ this,,
.LBB1278:
@ /opt/venus/walnascar-arm-cortexa8hf-neon/sysroots/cortexa8hf-neon-oe-linux-gnueabi/usr/include/qt6/QtCore/qarraydatapointer.h:236:         if (size) {
	.loc 2 236 9 view .LVU387
	cmp	lr, #0	@ dp$8,
	bne	.L45		@,
.LVL101:
.L103:
	.loc 2 236 9 view .LVU388
.LBE1278:
.LBB1279:
.LBB1055:
.LBB1045:
.LBB1025:
@ /opt/venus/walnascar-arm-cortexa8hf-neon/sysroots/cortexa8hf-neon-oe-linux-gnueabi/usr/include/qt6/QtCore/qarraydatapointer.h:469:         return this->ptr - Data::dataStart(d, alignof(typename Data::AlignmentDummy));
	.loc 2 469 22 view .LVU389
	mov	r3, r2	@ b, b
	b	.L48		@
.LVL102:
.L115:
	.loc 2 469 22 view .LVU390
	ldmib	r4, {r2, lr}	@ this,,
.LVL103:
.L41:
	.loc 2 469 22 view .LVU391
.LBE1025:
.LBE1045:
.LBE1055:
.LBE1279:
.LBB1280:
@ /opt/venus/walnascar-arm-cortexa8hf-neon/sysroots/cortexa8hf-neon-oe-linux-gnueabi/usr/include/qt6/QtCore/qarraydatapointer.h:236:         if (size) {
	.loc 2 236 9 view .LVU392
	cmp	lr, #0	@ dp$8,
	beq	.L103		@,
.LBB1131:
@ /opt/venus/walnascar-arm-cortexa8hf-neon/sysroots/cortexa8hf-neon-oe-linux-gnueabi/usr/include/qt6/QtCore/qarraydatapointer.h:239:                 toCopy += n;
	.loc 2 239 24 view .LVU393
	add	lr, lr, r6	@ dp$8, dp$8, n
	b	.L45		@
.LVL104:
.L110:
	.loc 2 239 24 view .LVU394
.LBE1131:
.LBE1280:
.LBB1281:
.LBB1056:
@ /opt/venus/walnascar-arm-cortexa8hf-neon/sysroots/cortexa8hf-neon-oe-linux-gnueabi/usr/include/qt6/QtCore/qarraydatapointer.h:500:                 ? n + qMax(0, (header->alloc - from.size - n) / 2)
	.loc 2 500 46 discriminator 1 view .LVU395
	ldr	r2, [r9, #8]	@ MEM[(struct QTypedArrayData *)d.34_135].D.159878.alloc, MEM[(struct QTypedArrayData *)d.34_135].D.159878.alloc
@ /opt/venus/walnascar-arm-cortexa8hf-neon/sysroots/cortexa8hf-neon-oe-linux-gnueabi/usr/include/qt6/QtCore/qarraydatapointer.h:499:         dataPtr += (position == QArrayData::GrowsAtBeginning)
	.loc 2 499 17 view .LVU396
	mov	r1, #12	@ tmp288,
@ /opt/venus/walnascar-arm-cortexa8hf-neon/sysroots/cortexa8hf-neon-oe-linux-gnueabi/usr/include/qt6/QtCore/qarraydatapointer.h:500:                 ? n + qMax(0, (header->alloc - from.size - n) / 2)
	.loc 2 500 46 discriminator 1 view .LVU397
	sub	r2, r2, lr	@ _100, MEM[(struct QTypedArrayData *)d.34_135].D.159878.alloc, dp$8
@ /opt/venus/walnascar-arm-cortexa8hf-neon/sysroots/cortexa8hf-neon-oe-linux-gnueabi/usr/include/qt6/QtCore/qarraydatapointer.h:500:                 ? n + qMax(0, (header->alloc - from.size - n) / 2)
	.loc 2 500 58 discriminator 1 view .LVU398
	sub	r2, r2, r6	@ _101, _100, n
.LBB1046:
.LBI1046:
	.loc 10 21 27 is_stmt 1 view .LVU399
.LBB1047:
@ /opt/venus/walnascar-arm-cortexa8hf-neon/sysroots/cortexa8hf-neon-oe-linux-gnueabi/usr/include/qt6/QtCore/qminmax.h:21: constexpr inline const T &qMax(const T &a, const T &b) { return (a < b) ? b : a; }
	.loc 10 21 73 is_stmt 0 view .LVU400
	cmp	r2, #1	@ _101,
.LBE1047:
.LBE1046:
@ /opt/venus/walnascar-arm-cortexa8hf-neon/sysroots/cortexa8hf-neon-oe-linux-gnueabi/usr/include/qt6/QtCore/qarraydatapointer.h:500:                 ? n + qMax(0, (header->alloc - from.size - n) / 2)
	.loc 2 500 17 discriminator 2 view .LVU401
	addgt	r2, r6, r2, asr #1	@ _36, n, _101,
.LBB1049:
.LBB1048:
	movle	r2, r6	@ _36, n
.LBE1048:
.LBE1049:
.LBB1050:
.LBB1019:
@ /opt/venus/walnascar-arm-cortexa8hf-neon/sysroots/cortexa8hf-neon-oe-linux-gnueabi/usr/include/qt6/QtCore/qarraydatapointer.h:458:     const typename Data::ArrayOptions flags() const noexcept { return d ? d->flags : Data::ArrayOptionDefault; }
	.loc 2 458 73 view .LVU402
	cmp	r3, #0	@ pretmp_324,
.LBE1019:
.LBE1050:
@ /opt/venus/walnascar-arm-cortexa8hf-neon/sysroots/cortexa8hf-neon-oe-linux-gnueabi/usr/include/qt6/QtCore/qarraydatapointer.h:499:         dataPtr += (position == QArrayData::GrowsAtBeginning)
	.loc 2 499 17 view .LVU403
	mla	r8, r1, r2, r0	@ result, tmp288, _36, result
.LVL105:
.LBB1051:
	.loc 2 458 39 is_stmt 1 view .LVU404
	ldr	r2, [r4, #4]	@ b, MEM[(const struct QArrayDataPointer *)this_25(D)].ptr
.LBB1020:
@ /opt/venus/walnascar-arm-cortexa8hf-neon/sysroots/cortexa8hf-neon-oe-linux-gnueabi/usr/include/qt6/QtCore/qarraydatapointer.h:458:     const typename Data::ArrayOptions flags() const noexcept { return d ? d->flags : Data::ArrayOptionDefault; }
	.loc 2 458 73 is_stmt 0 view .LVU405
	beq	.L39		@,
	b	.L38		@
.LVL106:
.L70:
	.loc 2 458 73 view .LVU406
.LBE1020:
.LBE1051:
.LBE1056:
.LBE1281:
.LBB1282:
.LBB1132:
.LBB1090:
.LBB1089:
@ /opt/venus/walnascar-arm-cortexa8hf-neon/sysroots/cortexa8hf-neon-oe-linux-gnueabi/usr/include/qt6/QtCore/qarraydataops.h:293:         while (b < e) {
	.loc 7 293 18 view .LVU407
	mov	lr, #0	@ dp$8,
	b	.L48		@
.LVL107:
.L111:
	.loc 7 293 18 view .LVU408
.LBE1089:
.LBE1090:
.LBB1091:
.LBB1092:
@ /opt/venus/walnascar-arm-cortexa8hf-neon/sysroots/cortexa8hf-neon-oe-linux-gnueabi/usr/include/qt6/QtCore/qarraydataops.h:321:         if (b == e)
	.loc 7 321 9 view .LVU409
	cmp	r1, #0	@ _321,
.LVL108:
	.loc 7 321 9 view .LVU410
.LBE1092:
.LBE1091:
.LBB1127:
.LBI1127:
	.loc 2 122 8 is_stmt 1 view .LVU411
.LBB1128:
.LBI1128:
	.loc 2 119 8 view .LVU412
	.loc 2 119 8 is_stmt 0 view .LVU413
.LBE1128:
.LBE1127:
.LBB1129:
.LBI1091:
	.loc 7 314 10 is_stmt 1 view .LVU414
.LBB1125:
@ /opt/venus/walnascar-arm-cortexa8hf-neon/sysroots/cortexa8hf-neon-oe-linux-gnueabi/usr/include/qt6/QtCore/qarraydataops.h:321:         if (b == e)
	.loc 7 321 9 is_stmt 0 view .LVU415
	beq	.L50		@,
.LBE1125:
.LBE1129:
@ /opt/venus/walnascar-arm-cortexa8hf-neon/sysroots/cortexa8hf-neon-oe-linux-gnueabi/usr/include/qt6/QtCore/qarraydatapointer.h:243:                 dp->moveAppend(begin(), begin() + toCopy);
	.loc 2 243 31 discriminator 3 view .LVU416
	add	r1, r2, r1	@ _319, tmp, _321
.LVL109:
.LBB1130:
.LBB1126:
	.loc 7 325 18 is_stmt 1 view .LVU417
	cmp	r2, r1	@ tmp, _319
	bcs	.L50		@,
	.loc 7 325 18 is_stmt 0 view .LVU418
	add	r3, r2, #12	@ ivtmp.220, tmp,
	mov	ip, r8	@ ivtmp.224, result
	mov	lr, #1	@ ivtmp.222,
.LVL110:
.L51:
.LBB1093:
.LBI1093:
	.loc 9 226 12 is_stmt 1 view .LVU419
.LBB1094:
.LBI1094:
	.loc 2 77 5 view .LVU420
.LBB1095:
.LBB1096:
.LBB1097:
.LBI1097:
	.file 15 "/opt/venus/walnascar-arm-cortexa8hf-neon/sysroots/cortexa8hf-neon-oe-linux-gnueabi/usr/include/c++/15.1.0/utility"
	.loc 15 114 5 view .LVU421
.LBB1098:
.LBI1098:
	.loc 14 188 5 view .LVU422
.LBB1099:
@ /opt/venus/walnascar-arm-cortexa8hf-neon/sysroots/cortexa8hf-neon-oe-linux-gnueabi/usr/include/c++/15.1.0/bits/move.h:190:       _Tp __old_val = std::move(__obj);
	.loc 14 190 11 is_stmt 0 view .LVU423
	ldr	r5, [r3, #-12]	@ __old_val, MEM[(struct QTypedArrayData * &)_139 + 4294967284]
.LVL111:
	.loc 14 190 11 view .LVU424
.LBE1099:
.LBE1098:
.LBE1097:
.LBE1096:
.LBE1095:
.LBE1094:
.LBE1093:
@ /opt/venus/walnascar-arm-cortexa8hf-neon/sysroots/cortexa8hf-neon-oe-linux-gnueabi/usr/include/qt6/QtCore/qarraydataops.h:325:         while (b < e) {
	.loc 7 325 18 view .LVU425
	cmp	r3, r1	@ ivtmp.220, _319
.LBB1122:
.LBB1119:
.LBB1116:
.LBB1113:
.LBB1102:
.LBB1101:
.LBB1100:
@ /opt/venus/walnascar-arm-cortexa8hf-neon/sysroots/cortexa8hf-neon-oe-linux-gnueabi/usr/include/c++/15.1.0/bits/move.h:191:       __obj = std::forward<_Up>(__new_val);
	.loc 14 191 13 view .LVU426
	str	r0, [r3, #-12]	@ tmp314, MEM[(struct QTypedArrayData * &)_139 + 4294967284]
.LVL112:
	.loc 14 191 13 view .LVU427
.LBE1100:
.LBE1101:
.LBE1102:
.LBB1103:
.LBI1103:
	.loc 15 114 5 is_stmt 1 view .LVU428
.LBB1104:
.LBI1104:
	.loc 14 188 5 view .LVU429
.LBE1104:
.LBE1103:
.LBE1113:
.LBE1116:
.LBE1119:
.LBE1122:
@ /opt/venus/walnascar-arm-cortexa8hf-neon/sysroots/cortexa8hf-neon-oe-linux-gnueabi/usr/include/qt6/QtCore/qarraydataops.h:325:         while (b < e) {
	.loc 7 325 18 is_stmt 0 view .LVU430
	add	ip, ip, #12	@ ivtmp.224, ivtmp.224,
.LVL113:
	.loc 7 325 18 view .LVU431
	add	r3, r3, #12	@ ivtmp.220, ivtmp.220,
.LBB1123:
.LBB1120:
.LBB1117:
.LBB1114:
@ /opt/venus/walnascar-arm-cortexa8hf-neon/sysroots/cortexa8hf-neon-oe-linux-gnueabi/usr/include/qt6/QtCore/qarraydatapointer.h:78:         : d(std::exchange(other.d, nullptr)),
	.loc 2 78 11 discriminator 1 view .LVU432
	str	r5, [ip, #-12]	@ __old_val, MEM[(struct Data * *)_164]
.LBB1107:
.LBB1106:
.LBB1105:
@ /opt/venus/walnascar-arm-cortexa8hf-neon/sysroots/cortexa8hf-neon-oe-linux-gnueabi/usr/include/c++/15.1.0/bits/move.h:190:       _Tp __old_val = std::move(__obj);
	.loc 14 190 11 view .LVU433
	ldr	r5, [r3, #-20]	@ __old_val, MEM[(char16_t * &)_139 + 4294967288]
.LVL114:
@ /opt/venus/walnascar-arm-cortexa8hf-neon/sysroots/cortexa8hf-neon-oe-linux-gnueabi/usr/include/c++/15.1.0/bits/move.h:191:       __obj = std::forward<_Up>(__new_val);
	.loc 14 191 13 view .LVU434
	str	r0, [r3, #-20]	@ tmp314, MEM[(char16_t * &)_139 + 4294967288]
.LVL115:
	.loc 14 191 13 view .LVU435
.LBE1105:
.LBE1106:
.LBE1107:
.LBB1108:
.LBI1108:
	.loc 15 114 5 is_stmt 1 view .LVU436
.LBB1109:
.LBI1109:
	.loc 14 188 5 view .LVU437
.LBE1109:
.LBE1108:
@ /opt/venus/walnascar-arm-cortexa8hf-neon/sysroots/cortexa8hf-neon-oe-linux-gnueabi/usr/include/qt6/QtCore/qarraydatapointer.h:79:           ptr(std::exchange(other.ptr, nullptr)),
	.loc 2 79 11 is_stmt 0 discriminator 1 view .LVU438
	str	r5, [ip, #-8]	@ __old_val, MEM[(char16_t * *)_164 + 4B]
.LBB1112:
.LBB1111:
.LBB1110:
@ /opt/venus/walnascar-arm-cortexa8hf-neon/sysroots/cortexa8hf-neon-oe-linux-gnueabi/usr/include/c++/15.1.0/bits/move.h:190:       _Tp __old_val = std::move(__obj);
	.loc 14 190 11 view .LVU439
	ldr	r5, [r3, #-16]	@ __old_val, MEM[(type &)_139 + 4294967292]
.LVL116:
@ /opt/venus/walnascar-arm-cortexa8hf-neon/sysroots/cortexa8hf-neon-oe-linux-gnueabi/usr/include/c++/15.1.0/bits/move.h:191:       __obj = std::forward<_Up>(__new_val);
	.loc 14 191 13 view .LVU440
	str	r0, [r3, #-16]	@ tmp314, MEM[(int &)_139 + 4294967292]
.LVL117:
	.loc 14 191 13 view .LVU441
.LBE1110:
.LBE1111:
.LBE1112:
.LBE1114:
.LBE1117:
.LBE1120:
.LBE1123:
	.loc 7 325 18 is_stmt 1 view .LVU442
.LBB1124:
.LBB1121:
.LBB1118:
.LBB1115:
@ /opt/venus/walnascar-arm-cortexa8hf-neon/sysroots/cortexa8hf-neon-oe-linux-gnueabi/usr/include/qt6/QtCore/qarraydatapointer.h:80:           size(std::exchange(other.size, 0))
	.loc 2 80 11 is_stmt 0 discriminator 1 view .LVU443
	str	r5, [ip, #-4]	@ __old_val, MEM[(int *)_164 + 8B]
	mov	r5, lr	@ ivtmp.222, ivtmp.222
.LBE1115:
.LBE1118:
.LBE1121:
.LBE1124:
@ /opt/venus/walnascar-arm-cortexa8hf-neon/sysroots/cortexa8hf-neon-oe-linux-gnueabi/usr/include/qt6/QtCore/qarraydataops.h:325:         while (b < e) {
	.loc 7 325 18 view .LVU444
	add	lr, lr, #1	@ ivtmp.222, ivtmp.222,
.LVL118:
	.loc 7 325 18 view .LVU445
	bcc	.L51		@,
.LVL119:
	.loc 7 325 18 view .LVU446
.LBE1126:
.LBE1130:
.LBE1132:
.LBE1282:
.LBB1283:
	.loc 2 129 10 is_stmt 1 view .LVU447
.LBB1157:
	.loc 13 29 23 view .LVU448
.LBE1157:
.LBB1158:
.LBB1149:
@ /opt/venus/walnascar-arm-cortexa8hf-neon/sysroots/cortexa8hf-neon-oe-linux-gnueabi/usr/include/c++/15.1.0/bits/move.h:235:       _Tp __tmp = _GLIBCXX_MOVE(__a);
	.loc 14 235 11 is_stmt 0 view .LVU449
	ldr	r7, [r4, #8]	@ _53, MEM[(type &)this_25(D) + 8]
.LVL120:
	.loc 14 235 11 view .LVU450
.LBE1149:
.LBE1158:
.LBB1159:
.LBB1142:
@ /opt/venus/walnascar-arm-cortexa8hf-neon/sysroots/cortexa8hf-neon-oe-linux-gnueabi/usr/include/qt6/QtCore/qswap.h:31:     T *tmp = lhs;
	.loc 13 31 8 view .LVU451
	ldr	r6, [r4]	@ dp$d, MEM[(struct QTypedArrayData * &)this_25(D)]
.LVL121:
	.loc 13 31 8 view .LVU452
.LBE1142:
.LBE1159:
.LBB1160:
.LBB1137:
@ /opt/venus/walnascar-arm-cortexa8hf-neon/sysroots/cortexa8hf-neon-oe-linux-gnueabi/usr/include/qt6/QtCore/qswap.h:32:     lhs = rhs;
	.loc 13 32 9 view .LVU453
	str	r8, [r4, #4]	@ result, MEM[(struct QString * &)this_25(D) + 4]
.LBE1137:
.LBE1160:
.LBB1161:
.LBB1150:
@ /opt/venus/walnascar-arm-cortexa8hf-neon/sysroots/cortexa8hf-neon-oe-linux-gnueabi/usr/include/c++/15.1.0/bits/move.h:236:       __a = _GLIBCXX_MOVE(__b);
	.loc 14 236 11 view .LVU454
	str	r5, [r4, #8]	@ ivtmp.222, MEM[(int &)this_25(D) + 8]
.LBE1150:
.LBE1161:
.LBB1162:
.LBB1143:
@ /opt/venus/walnascar-arm-cortexa8hf-neon/sysroots/cortexa8hf-neon-oe-linux-gnueabi/usr/include/qt6/QtCore/qswap.h:32:     lhs = rhs;
	.loc 13 32 9 view .LVU455
	str	r9, [r4]	@ d.34_135, MEM[(struct QTypedArrayData * &)this_25(D)]
.LVL122:
	.loc 13 32 9 view .LVU456
.LBE1143:
.LBE1162:
.LBB1163:
	.loc 13 29 23 is_stmt 1 view .LVU457
	.loc 13 29 23 is_stmt 0 view .LVU458
.LBE1163:
.LBB1164:
	.loc 14 227 5 is_stmt 1 view .LVU459
	.loc 14 227 5 is_stmt 0 view .LVU460
	b	.L55		@
.LVL123:
.L50:
	.loc 14 227 5 view .LVU461
.LBE1164:
	.loc 2 129 10 is_stmt 1 view .LVU462
.LBB1165:
	.loc 13 29 23 view .LVU463
.LBB1144:
@ /opt/venus/walnascar-arm-cortexa8hf-neon/sysroots/cortexa8hf-neon-oe-linux-gnueabi/usr/include/qt6/QtCore/qswap.h:31:     T *tmp = lhs;
	.loc 13 31 8 is_stmt 0 view .LVU464
	ldr	r6, [r4]	@ dp$d, MEM[(struct QTypedArrayData * &)this_25(D)]
.LVL124:
	.loc 13 31 8 view .LVU465
.LBE1144:
.LBE1165:
.LBB1166:
.LBB1151:
@ /opt/venus/walnascar-arm-cortexa8hf-neon/sysroots/cortexa8hf-neon-oe-linux-gnueabi/usr/include/c++/15.1.0/bits/move.h:236:       __a = _GLIBCXX_MOVE(__b);
	.loc 14 236 11 view .LVU466
	mov	r3, #0	@ tmp326,
@ /opt/venus/walnascar-arm-cortexa8hf-neon/sysroots/cortexa8hf-neon-oe-linux-gnueabi/usr/include/c++/15.1.0/bits/move.h:235:       _Tp __tmp = _GLIBCXX_MOVE(__a);
	.loc 14 235 11 view .LVU467
	ldr	r7, [r4, #8]	@ _53, MEM[(type &)this_25(D) + 8]
.LVL125:
	.loc 14 235 11 view .LVU468
.LBE1151:
.LBE1166:
.LBB1167:
.LBB1138:
@ /opt/venus/walnascar-arm-cortexa8hf-neon/sysroots/cortexa8hf-neon-oe-linux-gnueabi/usr/include/qt6/QtCore/qswap.h:32:     lhs = rhs;
	.loc 13 32 9 view .LVU469
	str	r8, [r4, #4]	@ result, MEM[(struct QString * &)this_25(D) + 4]
.LBE1138:
.LBE1167:
.LBB1168:
.LBB1145:
	str	r9, [r4]	@ d.34_135, MEM[(struct QTypedArrayData * &)this_25(D)]
.LVL126:
	.loc 13 32 9 view .LVU470
.LBE1145:
.LBE1168:
.LBB1169:
	.loc 13 29 23 is_stmt 1 view .LVU471
	.loc 13 29 23 is_stmt 0 view .LVU472
.LBE1169:
.LBB1170:
	.loc 14 227 5 is_stmt 1 view .LVU473
.LBB1152:
@ /opt/venus/walnascar-arm-cortexa8hf-neon/sysroots/cortexa8hf-neon-oe-linux-gnueabi/usr/include/c++/15.1.0/bits/move.h:236:       __a = _GLIBCXX_MOVE(__b);
	.loc 14 236 11 is_stmt 0 view .LVU474
	str	r3, [r4, #8]	@ tmp326, MEM[(int &)this_25(D) + 8]
.LVL127:
	.loc 14 236 11 view .LVU475
	b	.L55		@
.LVL128:
.L114:
	.loc 14 236 11 view .LVU476
.LBE1152:
.LBE1170:
.LBE1283:
.LBB1284:
.LBB1259:
@ /opt/venus/walnascar-arm-cortexa8hf-neon/sysroots/cortexa8hf-neon-oe-linux-gnueabi/usr/include/qt6/QtCore/qarraydataops.h:802:         Q_CHECK_PTR(pair.second);
	.loc 7 802 43 discriminator 1 view .LVU477
	bl	_Z9qBadAllocv		@
.LVL129:
.LEHE0:
.L44:
.LEHB1:
	.loc 7 802 43 discriminator 1 view .LVU478
.LBE1259:
.LBE1284:
@ /opt/venus/walnascar-arm-cortexa8hf-neon/sysroots/cortexa8hf-neon-oe-linux-gnueabi/usr/include/qt6/QtCore/qarraydatapointer.h:230:             Q_CHECK_PTR(dp.data());
	.loc 2 230 45 discriminator 2 view .LVU479
	bl	_Z9qBadAllocv		@
.LVL130:
.LEHE1:
.L73:
@ /opt/venus/walnascar-arm-cortexa8hf-neon/sysroots/cortexa8hf-neon-oe-linux-gnueabi/usr/include/qt6/QtCore/qarraydatapointer.h:250:     }
	.loc 2 250 5 view .LVU480
	add	r0, sp, #8	@ tmp346,,
	str	r9, [sp, #8]	@ d.34_135, MEM <struct Data *> [(struct QArrayDataPointer *)_92]
	str	r8, [sp, #12]	@ result, MEM <struct QString *> [(struct QArrayDataPointer *)_92 + 4B]
	str	r8, [sp, #16]	@ result, MEM <int> [(struct QArrayDataPointer *)_92 + 8B]
	bl	_ZN17QArrayDataPointerI7QStringED1Ev		@
.LVL131:
.LEHB2:
	bl	__cxa_end_cleanup		@
.LVL132:
.LEHE2:
	.cfi_endproc
.LFE9535:
	.personality	__gxx_personality_v0
	.handlerdata
.LLSDA9535:
	.byte	0xff
	.byte	0xff
	.byte	0x1
	.uleb128 .LLSDACSE9535-.LLSDACSB9535
.LLSDACSB9535:
	.uleb128 .LEHB0-.LFB9535
	.uleb128 .LEHE0-.LEHB0
	.uleb128 0
	.uleb128 0
	.uleb128 .LEHB1-.LFB9535
	.uleb128 .LEHE1-.LEHB1
	.uleb128 .L73-.LFB9535
	.uleb128 0
	.uleb128 .LEHB2-.LFB9535
	.uleb128 .LEHE2-.LEHB2
	.uleb128 0
	.uleb128 0
.LLSDACSE9535:
	.section	.text._ZN17QArrayDataPointerI7QStringE17reallocateAndGrowEN10QArrayData14GrowthPositionEiPS1_,"axG",%progbits,_ZN17QArrayDataPointerI7QStringE17reallocateAndGrowEN10QArrayData14GrowthPositionEiPS1_,comdat
	.fnend
	.size	_ZN17QArrayDataPointerI7QStringE17reallocateAndGrowEN10QArrayData14GrowthPositionEiPS1_, .-_ZN17QArrayDataPointerI7QStringE17reallocateAndGrowEN10QArrayData14GrowthPositionEiPS1_
	.section	.text._ZN9QtPrivate16QMovableArrayOpsI7QStringE7emplaceIJRKS1_EEEviDpOT_,"axG",%progbits,_ZN9QtPrivate16QMovableArrayOpsI7QStringE7emplaceIJRKS1_EEEviDpOT_,comdat
	.align	2
	.weak	_ZN9QtPrivate16QMovableArrayOpsI7QStringE7emplaceIJRKS1_EEEviDpOT_
	.syntax unified
	.arm
	.type	_ZN9QtPrivate16QMovableArrayOpsI7QStringE7emplaceIJRKS1_EEEviDpOT_, %function
_ZN9QtPrivate16QMovableArrayOpsI7QStringE7emplaceIJRKS1_EEEviDpOT_:
	.fnstart
.LVL133:
.LFB9476:
	.loc 7 745 10 is_stmt 1 view -0
	.cfi_startproc
	@ args = 0, pretend = 0, frame = 16
	@ frame_needed = 0, uses_anonymous_args = 0
	.loc 7 745 10 is_stmt 0 view .LVU482
	push	{r4, r5, r6, r7, r8, r9, lr}	@
	.save {r4, r5, r6, r7, r8, r9, lr}
	.cfi_def_cfa_offset 28
	.cfi_offset 4, -28
	.cfi_offset 5, -24
	.cfi_offset 6, -20
	.cfi_offset 7, -16
	.cfi_offset 8, -12
	.cfi_offset 9, -8
	.cfi_offset 14, -4
	mov	r4, r0	@ this, this
	vpush.64	{d8}	@
	.vsave {d8}
	.cfi_def_cfa_offset 36
	.cfi_offset 80, -36
	.cfi_offset 81, -32
	mov	r5, r1	@ i, i
.LBB1480:
.LBI1480:
	.loc 2 456 10 is_stmt 1 view .LVU483
.LVL134:
	.loc 2 456 10 is_stmt 0 view .LVU484
	ldr	r3, [r0]	@ _138, MEM[(struct Data * *)this_18(D)]
.LBB1481:
@ /opt/venus/walnascar-arm-cortexa8hf-neon/sysroots/cortexa8hf-neon-oe-linux-gnueabi/usr/include/qt6/QtCore/qarraydatapointer.h:456:     bool needsDetach() const noexcept { return !d || d->needsDetach(); }
	.loc 2 456 51 view .LVU485
	cmp	r3, #0	@ _138,
.LBE1481:
.LBE1480:
@ /opt/venus/walnascar-arm-cortexa8hf-neon/sysroots/cortexa8hf-neon-oe-linux-gnueabi/usr/include/qt6/QtCore/qarraydataops.h:745:     void emplace(qsizetype i, Args &&... args)
	.loc 7 745 10 view .LVU486
	.pad #20
	sub	sp, sp, #20	@,,
	.cfi_def_cfa_offset 56
.LBB1488:
.LBB1487:
@ /opt/venus/walnascar-arm-cortexa8hf-neon/sysroots/cortexa8hf-neon-oe-linux-gnueabi/usr/include/qt6/QtCore/qarraydatapointer.h:456:     bool needsDetach() const noexcept { return !d || d->needsDetach(); }
	.loc 2 456 51 view .LVU487
	beq	.L117		@,
.LVL135:
.LBB1482:
.LBI1482:
	.loc 3 77 10 is_stmt 1 view .LVU488
	.loc 3 79 9 view .LVU489
.LBB1483:
.LBI1483:
	.loc 4 36 7 view .LVU490
.LBB1484:
.LBI1484:
	.loc 5 200 7 view .LVU491
.LBB1485:
.LBI1485:
	.loc 6 494 7 view .LVU492
.LBB1486:
	.loc 6 498 2 view .LVU493
	.loc 6 499 2 view .LVU494
@ /opt/venus/walnascar-arm-cortexa8hf-neon/sysroots/cortexa8hf-neon-oe-linux-gnueabi/usr/include/c++/15.1.0/bits/atomic_base.h:501: 	return __atomic_load_n(&_M_i, int(__m));
	.loc 6 501 24 is_stmt 0 view .LVU495
	ldr	r1, [r3]	@ _91,* _138
.LVL136:
	.loc 6 501 24 view .LVU496
.LBE1486:
.LBE1485:
.LBE1484:
.LBE1483:
.LBE1482:
@ /opt/venus/walnascar-arm-cortexa8hf-neon/sysroots/cortexa8hf-neon-oe-linux-gnueabi/usr/include/qt6/QtCore/qarraydatapointer.h:456:     bool needsDetach() const noexcept { return !d || d->needsDetach(); }
	.loc 2 456 51 discriminator 3 view .LVU497
	cmp	r1, #1	@ _91,
	ble	.L192		@,
.LVL137:
.L117:
	.loc 2 456 51 discriminator 3 view .LVU498
.LBE1487:
.LBE1488:
.LBB1489:
.LBI1489:
	.loc 9 1375 1 is_stmt 1 view .LVU499
.LBB1490:
.LBI1490:
	.loc 2 37 5 view .LVU500
.LBB1491:
@ /opt/venus/walnascar-arm-cortexa8hf-neon/sysroots/cortexa8hf-neon-oe-linux-gnueabi/usr/include/qt6/QtCore/qarraydatapointer.h:38:         : d(other.d), ptr(other.ptr), size(other.size)
	.loc 2 38 19 is_stmt 0 view .LVU501
	vld1.32	{d8}, [r2]	@ vect__124.245, MEM <vector(2) unsigned int> [(void *)args#0_27(D)]
.LVL138:
@ /opt/venus/walnascar-arm-cortexa8hf-neon/sysroots/cortexa8hf-neon-oe-linux-gnueabi/usr/include/qt6/QtCore/qarraydatapointer.h:38:         : d(other.d), ptr(other.ptr), size(other.size)
	.loc 2 38 50 view .LVU502
	ldr	r6, [r2, #8]	@ _123, MEM[(const struct QArrayDataPointer &)args#0_27(D)].size
.LVL139:
.LBB1492:
.LBI1492:
	.loc 2 451 10 is_stmt 1 view .LVU503
.LBB1493:
@ /opt/venus/walnascar-arm-cortexa8hf-neon/sysroots/cortexa8hf-neon-oe-linux-gnueabi/usr/include/qt6/QtCore/qarraydatapointer.h:451:     void ref() noexcept { if (d) d->ref(); }
	.loc 2 451 27 is_stmt 0 view .LVU504
	vmov	r2, s16	@ int	@ _241, vect__124.245
.LVL140:
	.loc 2 451 27 view .LVU505
	cmp	r2, #0	@ _241,
	beq	.L125		@,
.LVL141:
.L149:
.LBB1494:
.LBI1494:
	.loc 3 57 10 is_stmt 1 view .LVU506
	.loc 3 59 9 view .LVU507
.LBB1495:
.LBI1495:
	.loc 4 47 10 view .LVU508
.LBB1496:
.LBB1497:
.LBI1497:
	.loc 5 244 24 view .LVU509
.LBB1498:
.LBI1498:
	.loc 6 629 7 view .LVU510
.LBB1499:
@ /opt/venus/walnascar-arm-cortexa8hf-neon/sysroots/cortexa8hf-neon-oe-linux-gnueabi/usr/include/c++/15.1.0/bits/atomic_base.h:631:       { return __atomic_fetch_add(&_M_i, __i, int(__m)); }
	.loc 6 631 34 is_stmt 0 view .LVU511
	dmb	ish	
.L180:
	ldrex	r1, [s16]	@ tmp312,* vect__124.245
	add	r1, r1, #1	@ tmp312, tmp312,
	strex	r2, r1, [s16]	@ tmp313, tmp312,* vect__124.245
	cmp	r2, #0	@ tmp313,
	bne	.L180		@,
	dmb	ish	
.LVL142:
	.loc 6 631 34 view .LVU512
.LBE1499:
.LBE1498:
.LBE1497:
.LBE1496:
.LBE1495:
	.loc 3 60 9 is_stmt 1 view .LVU513
	ldr	r3, [r4]	@ _138, MEM[(struct Data * *)this_18(D)]
.L125:
.LVL143:
	.loc 3 60 9 is_stmt 0 view .LVU514
.LBE1494:
.LBE1493:
.LBE1492:
.LBE1491:
.LBE1490:
.LBE1489:
@ /opt/venus/walnascar-arm-cortexa8hf-neon/sysroots/cortexa8hf-neon-oe-linux-gnueabi/usr/include/qt6/QtCore/qarraydataops.h:762:         const bool growsAtBegin = this->size != 0 && i == 0;
	.loc 7 762 51 view .LVU515
	ldr	r1, [r4, #8]	@ pretmp_339, this_18(D)->D.168070.D.168038.size
@ /opt/venus/walnascar-arm-cortexa8hf-neon/sysroots/cortexa8hf-neon-oe-linux-gnueabi/usr/include/qt6/QtCore/qarraydataops.h:762:         const bool growsAtBegin = this->size != 0 && i == 0;
	.loc 7 762 51 discriminator 1 view .LVU516
	subs	r2, r1, #0	@ _300, pretmp_339,
	movne	r2, #1	@ _300,
	cmp	r5, #0	@ i,
	movne	r2, #0	@ _300,
	subs	r8, r2, #0	@ _300, _300
	bne	.L126		@,
.LVL144:
.LBB1508:
.LBI1508:
	.loc 2 193 10 is_stmt 1 view .LVU517
.LBB1509:
.LBB1510:
.LBI1510:
	.loc 2 456 10 view .LVU518
.LBB1511:
@ /opt/venus/walnascar-arm-cortexa8hf-neon/sysroots/cortexa8hf-neon-oe-linux-gnueabi/usr/include/qt6/QtCore/qarraydatapointer.h:456:     bool needsDetach() const noexcept { return !d || d->needsDetach(); }
	.loc 2 456 51 is_stmt 0 view .LVU519
	cmp	r3, #0	@ _138,
	beq	.L137		@,
.LVL145:
.L128:
.LBB1512:
.LBI1512:
	.loc 3 77 10 is_stmt 1 view .LVU520
	.loc 3 79 9 view .LVU521
.LBB1513:
.LBI1513:
	.loc 4 36 7 view .LVU522
.LBB1514:
.LBI1514:
	.loc 5 200 7 view .LVU523
.LBB1515:
.LBI1515:
	.loc 6 494 7 view .LVU524
.LBB1516:
	.loc 6 498 2 view .LVU525
	.loc 6 499 2 view .LVU526
@ /opt/venus/walnascar-arm-cortexa8hf-neon/sysroots/cortexa8hf-neon-oe-linux-gnueabi/usr/include/c++/15.1.0/bits/atomic_base.h:501: 	return __atomic_load_n(&_M_i, int(__m));
	.loc 6 501 24 is_stmt 0 view .LVU527
	ldr	r3, [r3]	@ _290,* _138
.LVL146:
	.loc 6 501 24 view .LVU528
.LBE1516:
.LBE1515:
.LBE1514:
.LBE1513:
.LBE1512:
@ /opt/venus/walnascar-arm-cortexa8hf-neon/sysroots/cortexa8hf-neon-oe-linux-gnueabi/usr/include/qt6/QtCore/qarraydatapointer.h:456:     bool needsDetach() const noexcept { return !d || d->needsDetach(); }
	.loc 2 456 51 discriminator 3 view .LVU529
	cmp	r3, #1	@ _290,
	ble	.L193		@,
.LVL147:
.L178:
	.loc 2 456 51 discriminator 3 view .LVU530
.LBE1511:
.LBE1510:
@ /opt/venus/walnascar-arm-cortexa8hf-neon/sysroots/cortexa8hf-neon-oe-linux-gnueabi/usr/include/qt6/QtCore/qarraydatapointer.h:209:             reallocateAndGrow(where, n, old);
	.loc 2 209 30 view .LVU531
	mov	r3, #0	@,
	mov	r2, #1	@,
	mov	r1, r3	@,
	mov	r0, r4	@, this
.LEHB3:
	bl	_ZN17QArrayDataPointerI7QStringE17reallocateAndGrowEN10QArrayData14GrowthPositionEiPS1_		@
.LVL148:
.L186:
	.loc 2 209 30 view .LVU532
.LBE1509:
.LBE1508:
@ /opt/venus/walnascar-arm-cortexa8hf-neon/sysroots/cortexa8hf-neon-oe-linux-gnueabi/usr/include/qt6/QtCore/qarraydataops.h:770:             ++this->size;
	.loc 7 770 21 view .LVU533
	ldmib	r4, {r1, r2}	@ this,,
.LVL149:
.L138:
.LBB1594:
.LBI1594:
	.loc 7 646 18 is_stmt 1 view .LVU534
.LBB1595:
@ /opt/venus/walnascar-arm-cortexa8hf-neon/sysroots/cortexa8hf-neon-oe-linux-gnueabi/usr/include/qt6/QtCore/qarraydataops.h:648:               displaceFrom{d->ptr + pos},
	.loc 7 648 35 is_stmt 0 view .LVU535
	mov	r3, #12	@ tmp284,
@ /opt/venus/walnascar-arm-cortexa8hf-neon/sysroots/cortexa8hf-neon-oe-linux-gnueabi/usr/include/qt6/QtCore/qarraydataops.h:651:               bytes{(data->size - pos) * sizeof(T)}
	.loc 7 651 33 view .LVU536
	sub	r2, r2, r5	@ _234, pretmp_339, i
@ /opt/venus/walnascar-arm-cortexa8hf-neon/sysroots/cortexa8hf-neon-oe-linux-gnueabi/usr/include/qt6/QtCore/qarraydataops.h:648:               displaceFrom{d->ptr + pos},
	.loc 7 648 35 view .LVU537
	mla	r5, r3, r5, r1	@ _229, tmp284, i, pretmp_337
.LVL150:
@ /opt/venus/walnascar-arm-cortexa8hf-neon/sysroots/cortexa8hf-neon-oe-linux-gnueabi/usr/include/qt6/QtCore/qarraydataops.h:653:             ::memmove(static_cast<void *>(displaceTo), static_cast<void *>(displaceFrom), bytes);
	.loc 7 653 22 view .LVU538
	mul	r2, r3, r2	@, tmp284, _234
	add	r0, r5, r3	@, _229,
	mov	r1, r5	@, _229
	bl	memmove		@
.LVL151:
	.loc 7 653 22 view .LVU539
.LBE1595:
.LBE1594:
.LBB1596:
.LBI1596:
	.loc 7 686 14 is_stmt 1 view .LVU540
.LBB1597:
.LBI1597:
	.loc 9 226 12 view .LVU541
.LBB1598:
.LBI1598:
	.loc 2 77 5 view .LVU542
.LBB1599:
.LBB1600:
.LBB1601:
.LBI1601:
	.loc 15 114 5 view .LVU543
	.loc 15 114 5 is_stmt 0 view .LVU544
.LBE1601:
.LBB1602:
.LBI1602:
	.loc 15 114 5 is_stmt 1 view .LVU545
	.loc 15 114 5 is_stmt 0 view .LVU546
.LBE1602:
@ /opt/venus/walnascar-arm-cortexa8hf-neon/sysroots/cortexa8hf-neon-oe-linux-gnueabi/usr/include/qt6/QtCore/qarraydatapointer.h:78:         : d(std::exchange(other.d, nullptr)),
	.loc 2 78 11 discriminator 1 view .LVU547
	vst1.32	{d8}, [r5]	@ vect__124.245, MEM <vector(2) unsigned int> [(void *)_229]
.LVL152:
.LBB1603:
.LBI1603:
	.loc 15 114 5 is_stmt 1 view .LVU548
	.loc 15 114 5 is_stmt 0 view .LVU549
.LBE1603:
.LBE1600:
.LBE1599:
.LBE1598:
.LBE1597:
.LBE1596:
.LBB1608:
.LBB1609:
@ /opt/venus/walnascar-arm-cortexa8hf-neon/sysroots/cortexa8hf-neon-oe-linux-gnueabi/usr/include/qt6/QtCore/qarraydataops.h:663:             data->size += inserts;
	.loc 7 663 24 view .LVU550
	ldr	r3, [r4, #8]	@ MEM[(struct QArrayDataPointer *)this_18(D)].size, MEM[(struct QArrayDataPointer *)this_18(D)].size
.LBE1609:
.LBE1608:
.LBB1611:
.LBB1607:
.LBB1606:
.LBB1605:
.LBB1604:
@ /opt/venus/walnascar-arm-cortexa8hf-neon/sysroots/cortexa8hf-neon-oe-linux-gnueabi/usr/include/qt6/QtCore/qarraydatapointer.h:80:           size(std::exchange(other.size, 0))
	.loc 2 80 11 discriminator 1 view .LVU551
	str	r6, [r5, #8]	@ _123, MEM[(struct QArrayDataPointer *)_229].size
.LVL153:
	.loc 2 80 11 discriminator 1 view .LVU552
.LBE1604:
.LBE1605:
.LBE1606:
.LBE1607:
.LBE1611:
.LBB1612:
.LBI1608:
	.loc 7 655 9 is_stmt 1 view .LVU553
.LBB1610:
@ /opt/venus/walnascar-arm-cortexa8hf-neon/sysroots/cortexa8hf-neon-oe-linux-gnueabi/usr/include/qt6/QtCore/qarraydataops.h:663:             data->size += inserts;
	.loc 7 663 24 is_stmt 0 view .LVU554
	add	r3, r3, #1	@ _57, MEM[(struct QArrayDataPointer *)this_18(D)].size,
	str	r3, [r4, #8]	@ _57, MEM[(struct QArrayDataPointer *)this_18(D)].size
.LVL154:
	.loc 7 663 24 view .LVU555
.LBE1610:
.LBE1612:
.LBB1613:
.LBI1613:
	.loc 9 1446 1 is_stmt 1 view .LVU556
.LBB1614:
.LBI1614:
	.loc 2 106 5 view .LVU557
.LBB1615:
.LBI1615:
	.loc 2 452 10 view .LVU558
.L116:
	.loc 2 452 10 is_stmt 0 view .LVU559
.LBE1615:
.LBE1614:
.LBE1613:
@ /opt/venus/walnascar-arm-cortexa8hf-neon/sysroots/cortexa8hf-neon-oe-linux-gnueabi/usr/include/qt6/QtCore/qarraydataops.h:774:     }
	.loc 7 774 5 view .LVU560
	add	sp, sp, #20	@,,
	.cfi_remember_state
	.cfi_def_cfa_offset 36
	@ sp needed	@
	vldm	sp!, {d8}	@
	.cfi_restore 80
	.cfi_restore 81
	.cfi_def_cfa_offset 28
	pop	{r4, r5, r6, r7, r8, r9, pc}	@
.LVL155:
.L192:
	.cfi_restore_state
@ /opt/venus/walnascar-arm-cortexa8hf-neon/sysroots/cortexa8hf-neon-oe-linux-gnueabi/usr/include/qt6/QtCore/qarraydataops.h:749:             if (i == this->size && this->freeSpaceAtEnd()) {
	.loc 7 749 28 view .LVU561
	ldr	r0, [r0, #8]	@ _2, this_18(D)->D.168070.D.168038.size
.LVL156:
.LBB1618:
.LBB1619:
.LBB1620:
.LBB1621:
@ /opt/venus/walnascar-arm-cortexa8hf-neon/sysroots/cortexa8hf-neon-oe-linux-gnueabi/usr/include/qt6/QtCore/qarraydatapointer.h:38:         : d(other.d), ptr(other.ptr), size(other.size)
	.loc 2 38 19 view .LVU562
	vld1.32	{d8}, [r2]	@ vect__124.245, MEM <vector(2) unsigned int> [(void *)args#0_27(D)]
.LBE1621:
.LBE1620:
.LBE1619:
.LBE1618:
@ /opt/venus/walnascar-arm-cortexa8hf-neon/sysroots/cortexa8hf-neon-oe-linux-gnueabi/usr/include/qt6/QtCore/qarraydataops.h:749:             if (i == this->size && this->freeSpaceAtEnd()) {
	.loc 7 749 33 view .LVU563
	cmp	r0, r5	@ _2, i
.LBB1641:
.LBB1638:
.LBB1635:
.LBB1632:
@ /opt/venus/walnascar-arm-cortexa8hf-neon/sysroots/cortexa8hf-neon-oe-linux-gnueabi/usr/include/qt6/QtCore/qarraydatapointer.h:38:         : d(other.d), ptr(other.ptr), size(other.size)
	.loc 2 38 50 view .LVU564
	ldr	r6, [r2, #8]	@ _123, MEM[(const struct QArrayDataPointer &)args#0_27(D)].size
.LVL157:
	.loc 2 38 50 view .LVU565
	vmov	lr, s16	@ int	@ _275, vect__124.245
.LBE1632:
.LBE1635:
.LBE1638:
.LBE1641:
@ /opt/venus/walnascar-arm-cortexa8hf-neon/sysroots/cortexa8hf-neon-oe-linux-gnueabi/usr/include/qt6/QtCore/qarraydataops.h:749:             if (i == this->size && this->freeSpaceAtEnd()) {
	.loc 7 749 33 view .LVU566
	beq	.L194		@,
@ /opt/venus/walnascar-arm-cortexa8hf-neon/sysroots/cortexa8hf-neon-oe-linux-gnueabi/usr/include/qt6/QtCore/qarraydataops.h:754:             if (i == 0 && this->freeSpaceAtBegin()) {
	.loc 7 754 24 view .LVU567
	cmp	r5, #0	@ i,
	bne	.L123		@,
.LVL158:
.LBB1642:
.LBI1642:
	.loc 2 465 15 is_stmt 1 view .LVU568
.LBB1643:
.LBB1644:
.LBB1645:
@ /opt/venus/walnascar-arm-cortexa8hf-neon/sysroots/cortexa8hf-neon-oe-linux-gnueabi/usr/include/qt6/QtCore/qarraydata.h:170:             (quintptr(data) + sizeof(QArrayData) + alignment - 1) & ~(alignment - 1));
	.loc 3 170 62 is_stmt 0 view .LVU569
	add	r1, r3, #19	@ _44, _138,
.LBE1645:
.LBE1644:
.LBE1643:
.LBE1642:
.LBB1649:
.LBB1650:
.LBB1651:
.LBB1652:
@ /opt/venus/walnascar-arm-cortexa8hf-neon/sysroots/cortexa8hf-neon-oe-linux-gnueabi/usr/include/qt6/QtCore/qarraydatapointer.h:469:         return this->ptr - Data::dataStart(d, alignof(typename Data::AlignmentDummy));
	.loc 2 469 22 view .LVU570
	ldr	ip, [r4, #4]	@ prephitmp_51, MEM[(const struct QArrayDataPointer *)this_18(D)].ptr
.LBE1652:
.LBE1651:
.LBE1650:
.LBE1649:
.LBB1662:
.LBB1648:
.LBB1647:
.LBB1646:
@ /opt/venus/walnascar-arm-cortexa8hf-neon/sysroots/cortexa8hf-neon-oe-linux-gnueabi/usr/include/qt6/QtCore/qarraydata.h:170:             (quintptr(data) + sizeof(QArrayData) + alignment - 1) & ~(alignment - 1));
	.loc 3 170 67 view .LVU571
	bic	r1, r1, #7	@ start, _44,
.LVL159:
.L153:
	.loc 3 170 67 view .LVU572
.LBE1646:
.LBI1644:
	.loc 3 165 15 is_stmt 1 view .LVU573
	.loc 3 165 15 is_stmt 0 view .LVU574
.LBE1647:
.LBE1648:
.LBE1662:
@ /opt/venus/walnascar-arm-cortexa8hf-neon/sysroots/cortexa8hf-neon-oe-linux-gnueabi/usr/include/qt6/QtCore/qarraydataops.h:754:             if (i == 0 && this->freeSpaceAtBegin()) {
	.loc 7 754 24 discriminator 3 view .LVU575
	cmp	ip, r1	@ prephitmp_51, start
	beq	.L117		@,
.LVL160:
.LBB1663:
.LBI1663:
	.loc 9 1375 1 is_stmt 1 view .LVU576
.LBB1664:
.LBI1664:
	.loc 2 37 5 view .LVU577
.LBB1665:
.LBB1666:
@ /opt/venus/walnascar-arm-cortexa8hf-neon/sysroots/cortexa8hf-neon-oe-linux-gnueabi/usr/include/qt6/QtCore/qarraydatapointer.h:38:         : d(other.d), ptr(other.ptr), size(other.size)
	.loc 2 38 11 is_stmt 0 view .LVU578
	sub	r3, ip, #12	@ _7, prephitmp_51,
.LBB1667:
.LBB1668:
@ /opt/venus/walnascar-arm-cortexa8hf-neon/sysroots/cortexa8hf-neon-oe-linux-gnueabi/usr/include/qt6/QtCore/qarraydatapointer.h:451:     void ref() noexcept { if (d) d->ref(); }
	.loc 2 451 27 view .LVU579
	cmp	lr, #0	@ _275,
.LBE1668:
.LBE1667:
@ /opt/venus/walnascar-arm-cortexa8hf-neon/sysroots/cortexa8hf-neon-oe-linux-gnueabi/usr/include/qt6/QtCore/qarraydatapointer.h:38:         : d(other.d), ptr(other.ptr), size(other.size)
	.loc 2 38 11 view .LVU580
	vst1.32	{d8}, [r3]	@ vect__124.245, MEM <vector(2) unsigned int> [(void *)prephitmp_51 + 4294967284B]
@ /opt/venus/walnascar-arm-cortexa8hf-neon/sysroots/cortexa8hf-neon-oe-linux-gnueabi/usr/include/qt6/QtCore/qarraydatapointer.h:38:         : d(other.d), ptr(other.ptr), size(other.size)
	.loc 2 38 39 view .LVU581
	str	r6, [ip, #-4]	@ _123, MEM[(struct QArrayDataPointer *)prephitmp_51 + 4294967284B].size
.LVL161:
.LBB1676:
.LBI1667:
	.loc 2 451 10 is_stmt 1 view .LVU582
.LBB1675:
@ /opt/venus/walnascar-arm-cortexa8hf-neon/sysroots/cortexa8hf-neon-oe-linux-gnueabi/usr/include/qt6/QtCore/qarraydatapointer.h:451:     void ref() noexcept { if (d) d->ref(); }
	.loc 2 451 27 is_stmt 0 view .LVU583
	beq	.L124		@,
.LVL162:
.LBB1669:
.LBI1669:
	.loc 3 57 10 is_stmt 1 view .LVU584
	.loc 3 59 9 view .LVU585
.LBB1670:
.LBI1670:
	.loc 4 47 10 view .LVU586
.LBB1671:
.LBB1672:
.LBI1672:
	.loc 5 244 24 view .LVU587
.LBB1673:
.LBI1673:
	.loc 6 629 7 view .LVU588
.LBB1674:
@ /opt/venus/walnascar-arm-cortexa8hf-neon/sysroots/cortexa8hf-neon-oe-linux-gnueabi/usr/include/c++/15.1.0/bits/atomic_base.h:631:       { return __atomic_fetch_add(&_M_i, __i, int(__m)); }
	.loc 6 631 34 is_stmt 0 view .LVU589
	dmb	ish	
.LVL163:
.L181:
	.loc 6 631 34 view .LVU590
	ldrex	r3, [lr]	@ tmp310,* _275
	add	r3, r3, #1	@ tmp310, tmp310,
	strex	r2, r3, [lr]	@ tmp311, tmp310,* _275
	cmp	r2, #0	@ tmp311,
	bne	.L181		@,
	dmb	ish	
.LVL164:
	.loc 6 631 34 view .LVU591
.LBE1674:
.LBE1673:
.LBE1672:
.LBE1671:
.LBE1670:
	.loc 3 60 9 is_stmt 1 view .LVU592
	.loc 3 60 9 is_stmt 0 view .LVU593
.LBE1669:
.LBE1675:
.LBE1676:
.LBE1666:
.LBE1665:
.LBE1664:
.LBE1663:
@ /opt/venus/walnascar-arm-cortexa8hf-neon/sysroots/cortexa8hf-neon-oe-linux-gnueabi/usr/include/qt6/QtCore/qarraydataops.h:756:                 --this->ptr;
	.loc 7 756 25 view .LVU594
	ldr	ip, [r4, #4]	@ prephitmp_51, this_18(D)->D.168070.D.168038.ptr
@ /opt/venus/walnascar-arm-cortexa8hf-neon/sysroots/cortexa8hf-neon-oe-linux-gnueabi/usr/include/qt6/QtCore/qarraydataops.h:757:                 ++this->size;
	.loc 7 757 25 view .LVU595
	ldr	r0, [r4, #8]	@ _2, this_18(D)->D.168070.D.168038.size
	sub	r3, ip, #12	@ _7, prephitmp_51,
.L124:
.LVL165:
@ /opt/venus/walnascar-arm-cortexa8hf-neon/sysroots/cortexa8hf-neon-oe-linux-gnueabi/usr/include/qt6/QtCore/qarraydataops.h:757:                 ++this->size;
	.loc 7 757 17 view .LVU596
	add	r0, r0, #1	@ _9, _2,
@ /opt/venus/walnascar-arm-cortexa8hf-neon/sysroots/cortexa8hf-neon-oe-linux-gnueabi/usr/include/qt6/QtCore/qarraydataops.h:756:                 --this->ptr;
	.loc 7 756 17 view .LVU597
	str	r3, [r4, #4]	@ _7, this_18(D)->D.168070.D.168038.ptr
@ /opt/venus/walnascar-arm-cortexa8hf-neon/sysroots/cortexa8hf-neon-oe-linux-gnueabi/usr/include/qt6/QtCore/qarraydataops.h:757:                 ++this->size;
	.loc 7 757 17 view .LVU598
	str	r0, [r4, #8]	@ _9, this_18(D)->D.168070.D.168038.size
@ /opt/venus/walnascar-arm-cortexa8hf-neon/sysroots/cortexa8hf-neon-oe-linux-gnueabi/usr/include/qt6/QtCore/qarraydataops.h:758:                 return;
	.loc 7 758 17 view .LVU599
	b	.L116		@
.LVL166:
.L137:
.LBB1677:
.LBB1587:
.LBB1524:
.LBI1524:
	.loc 2 269 10 is_stmt 1 view .LVU600
.LBB1525:
.LBB1526:
.LBI1526:
	.loc 2 450 15 view .LVU601
	.loc 2 450 15 is_stmt 0 view .LVU602
.LBE1526:
.LBE1525:
.LBE1524:
@ /opt/venus/walnascar-arm-cortexa8hf-neon/sysroots/cortexa8hf-neon-oe-linux-gnueabi/usr/include/qt6/QtCore/qarraydatapointer.h:209:             reallocateAndGrow(where, n, old);
	.loc 2 209 30 view .LVU603
	mov	r1, r3	@,
	mov	r2, #1	@,
	mov	r0, r4	@, this
	bl	_ZN17QArrayDataPointerI7QStringE17reallocateAndGrowEN10QArrayData14GrowthPositionEiPS1_		@
.LVL167:
	.loc 2 209 30 view .LVU604
	b	.L186		@
.LVL168:
.L194:
	.loc 2 209 30 view .LVU605
.LBE1587:
.LBE1677:
.LBB1678:
.LBI1649:
	.loc 2 472 15 is_stmt 1 view .LVU606
.LBB1661:
.LBB1657:
.LBI1657:
	.loc 3 51 15 view .LVU607
.LBB1658:
	.loc 3 53 9 view .LVU608
	.loc 3 53 9 is_stmt 0 view .LVU609
.LBE1658:
.LBE1657:
.LBB1659:
.LBI1651:
	.loc 2 465 15 is_stmt 1 view .LVU610
.LBB1655:
@ /opt/venus/walnascar-arm-cortexa8hf-neon/sysroots/cortexa8hf-neon-oe-linux-gnueabi/usr/include/qt6/QtCore/qarraydatapointer.h:469:         return this->ptr - Data::dataStart(d, alignof(typename Data::AlignmentDummy));
	.loc 2 469 22 is_stmt 0 view .LVU611
	ldr	ip, [r4, #4]	@ prephitmp_51, MEM[(const struct QArrayDataPointer *)this_18(D)].ptr
.LVL169:
.LBB1653:
.LBI1653:
	.loc 3 165 15 is_stmt 1 view .LVU612
.LBB1654:
@ /opt/venus/walnascar-arm-cortexa8hf-neon/sysroots/cortexa8hf-neon-oe-linux-gnueabi/usr/include/qt6/QtCore/qarraydata.h:170:             (quintptr(data) + sizeof(QArrayData) + alignment - 1) & ~(alignment - 1));
	.loc 3 170 62 is_stmt 0 view .LVU613
	add	r1, r3, #19	@ _98, _138,
@ /opt/venus/walnascar-arm-cortexa8hf-neon/sysroots/cortexa8hf-neon-oe-linux-gnueabi/usr/include/qt6/QtCore/qarraydata.h:170:             (quintptr(data) + sizeof(QArrayData) + alignment - 1) & ~(alignment - 1));
	.loc 3 170 67 view .LVU614
	bic	r1, r1, #7	@ start, _98,
.LVL170:
	.loc 3 170 67 view .LVU615
.LBE1654:
.LBE1653:
.LBE1655:
.LBE1659:
@ /opt/venus/walnascar-arm-cortexa8hf-neon/sysroots/cortexa8hf-neon-oe-linux-gnueabi/usr/include/qt6/QtCore/qarraydatapointer.h:476:         return d->constAllocatedCapacity() - freeSpaceAtBegin() - this->size;
	.loc 2 476 44 discriminator 2 view .LVU616
	ldr	r9, [r3, #8]	@ tmp316, MEM[(const struct QArrayData *)_94].alloc
.LBB1660:
.LBB1656:
@ /opt/venus/walnascar-arm-cortexa8hf-neon/sysroots/cortexa8hf-neon-oe-linux-gnueabi/usr/include/qt6/QtCore/qarraydatapointer.h:469:         return this->ptr - Data::dataStart(d, alignof(typename Data::AlignmentDummy));
	.loc 2 469 26 discriminator 1 view .LVU617
	sub	r7, ip, r1	@ _101, prephitmp_51, start
@ /opt/venus/walnascar-arm-cortexa8hf-neon/sysroots/cortexa8hf-neon-oe-linux-gnueabi/usr/include/qt6/QtCore/qarraydatapointer.h:469:         return this->ptr - Data::dataStart(d, alignof(typename Data::AlignmentDummy));
	.loc 2 469 85 discriminator 1 view .LVU618
	asr	r8, r7, #2	@ tmp221, _101,
	movw	r7, #43691	@ tmp223,
	movt	r7, 43690	@ tmp223,
.LBE1656:
.LBE1660:
@ /opt/venus/walnascar-arm-cortexa8hf-neon/sysroots/cortexa8hf-neon-oe-linux-gnueabi/usr/include/qt6/QtCore/qarraydatapointer.h:476:         return d->constAllocatedCapacity() - freeSpaceAtBegin() - this->size;
	.loc 2 476 44 discriminator 2 view .LVU619
	mls	r7, r7, r8, r9	@ _103, tmp223, tmp221, tmp316
.LBE1661:
.LBE1678:
@ /opt/venus/walnascar-arm-cortexa8hf-neon/sysroots/cortexa8hf-neon-oe-linux-gnueabi/usr/include/qt6/QtCore/qarraydataops.h:749:             if (i == this->size && this->freeSpaceAtEnd()) {
	.loc 7 749 33 discriminator 3 view .LVU620
	cmp	r5, r7	@ i, _103
	bne	.L195		@,
@ /opt/venus/walnascar-arm-cortexa8hf-neon/sysroots/cortexa8hf-neon-oe-linux-gnueabi/usr/include/qt6/QtCore/qarraydataops.h:754:             if (i == 0 && this->freeSpaceAtBegin()) {
	.loc 7 754 24 view .LVU621
	cmp	r5, #0	@ i,
	beq	.L153		@,
.LVL171:
.LBB1679:
	.loc 9 1375 1 is_stmt 1 view .LVU622
.LBB1506:
	.loc 2 37 5 view .LVU623
.LBB1504:
.LBB1502:
	.loc 2 451 10 view .LVU624
.LBB1500:
@ /opt/venus/walnascar-arm-cortexa8hf-neon/sysroots/cortexa8hf-neon-oe-linux-gnueabi/usr/include/qt6/QtCore/qarraydatapointer.h:451:     void ref() noexcept { if (d) d->ref(); }
	.loc 2 451 27 is_stmt 0 view .LVU625
	cmp	lr, #0	@ _275,
	bne	.L149		@,
	b	.L128		@
.LVL172:
.L126:
	.loc 2 451 27 view .LVU626
.LBE1500:
.LBE1502:
.LBE1504:
.LBE1506:
.LBE1679:
.LBB1680:
	.loc 2 193 10 is_stmt 1 view .LVU627
.LBB1588:
.LBB1563:
	.loc 2 456 10 view .LVU628
.LBB1522:
@ /opt/venus/walnascar-arm-cortexa8hf-neon/sysroots/cortexa8hf-neon-oe-linux-gnueabi/usr/include/qt6/QtCore/qarraydatapointer.h:456:     bool needsDetach() const noexcept { return !d || d->needsDetach(); }
	.loc 2 456 51 is_stmt 0 view .LVU629
	cmp	r3, #0	@ _138,
	beq	.L129		@,
.LVL173:
.LBB1521:
	.loc 3 77 10 is_stmt 1 view .LVU630
	.loc 3 79 9 view .LVU631
.LBB1520:
	.loc 4 36 7 view .LVU632
.LBB1519:
	.loc 5 200 7 view .LVU633
.LBB1518:
	.loc 6 494 7 view .LVU634
.LBB1517:
	.loc 6 498 2 view .LVU635
	.loc 6 499 2 view .LVU636
@ /opt/venus/walnascar-arm-cortexa8hf-neon/sysroots/cortexa8hf-neon-oe-linux-gnueabi/usr/include/c++/15.1.0/bits/atomic_base.h:501: 	return __atomic_load_n(&_M_i, int(__m));
	.loc 6 501 24 is_stmt 0 view .LVU637
	ldr	r2, [r3]	@ _78,* _138
.LVL174:
	.loc 6 501 24 view .LVU638
.LBE1517:
.LBE1518:
.LBE1519:
.LBE1520:
.LBE1521:
@ /opt/venus/walnascar-arm-cortexa8hf-neon/sysroots/cortexa8hf-neon-oe-linux-gnueabi/usr/include/qt6/QtCore/qarraydatapointer.h:456:     bool needsDetach() const noexcept { return !d || d->needsDetach(); }
	.loc 2 456 51 discriminator 3 view .LVU639
	cmp	r2, #1	@ _78,
	ble	.L196		@,
.LVL175:
.L179:
	.loc 2 456 51 discriminator 3 view .LVU640
.LBE1522:
.LBE1563:
@ /opt/venus/walnascar-arm-cortexa8hf-neon/sysroots/cortexa8hf-neon-oe-linux-gnueabi/usr/include/qt6/QtCore/qarraydatapointer.h:209:             reallocateAndGrow(where, n, old);
	.loc 2 209 30 view .LVU641
	mov	r2, #1	@,
	mov	r3, #0	@,
	mov	r1, r2	@,
	mov	r0, r4	@, this
	bl	_ZN17QArrayDataPointerI7QStringE17reallocateAndGrowEN10QArrayData14GrowthPositionEiPS1_		@
.LVL176:
.L184:
	.loc 2 209 30 view .LVU642
.LBE1588:
.LBE1680:
.LBB1681:
.LBB1682:
.LBB1683:
@ /opt/venus/walnascar-arm-cortexa8hf-neon/sysroots/cortexa8hf-neon-oe-linux-gnueabi/usr/include/qt6/QtCore/qarraydatapointer.h:119:     T *data() noexcept { return ptr; }
	.loc 2 119 33 view .LVU643
	ldr	r7, [r4, #4]	@ res, MEM[(struct QArrayDataPointer *)this_18(D)].ptr
.LBE1683:
.LBE1682:
.LBE1681:
@ /opt/venus/walnascar-arm-cortexa8hf-neon/sysroots/cortexa8hf-neon-oe-linux-gnueabi/usr/include/qt6/QtCore/qarraydataops.h:770:             ++this->size;
	.loc 7 770 21 view .LVU644
	ldr	r2, [r4, #8]	@ pretmp_339, this_18(D)->D.168070.D.168038.size
	b	.L135		@
.LVL177:
.L193:
.LBB1685:
.LBB1589:
.LBB1564:
.LBI1564:
	.loc 2 472 15 is_stmt 1 view .LVU645
.LBB1565:
@ /opt/venus/walnascar-arm-cortexa8hf-neon/sysroots/cortexa8hf-neon-oe-linux-gnueabi/usr/include/qt6/QtCore/qarraydatapointer.h:474:         if (d == nullptr)
	.loc 2 474 13 is_stmt 0 view .LVU646
	ldr	r3, [r4]	@ _146, MEM[(const struct QArrayDataPointer *)this_18(D)].d
@ /opt/venus/walnascar-arm-cortexa8hf-neon/sysroots/cortexa8hf-neon-oe-linux-gnueabi/usr/include/qt6/QtCore/qarraydatapointer.h:474:         if (d == nullptr)
	.loc 2 474 9 view .LVU647
	cmp	r3, #0	@ _146,
	beq	.L137		@,
.LVL178:
.LBB1566:
.LBI1566:
	.loc 3 51 15 is_stmt 1 view .LVU648
.LBB1567:
	.loc 3 53 9 view .LVU649
@ /opt/venus/walnascar-arm-cortexa8hf-neon/sysroots/cortexa8hf-neon-oe-linux-gnueabi/usr/include/qt6/QtCore/qarraydata.h:53:         return alloc;
	.loc 3 53 16 is_stmt 0 view .LVU650
	ldr	lr, [r3, #8]	@ _147, MEM[(const struct QArrayData *)_146].alloc
.LVL179:
	.loc 3 53 16 view .LVU651
.LBE1567:
.LBE1566:
.LBB1568:
.LBI1568:
	.loc 2 465 15 is_stmt 1 view .LVU652
.LBB1569:
.LBB1570:
.LBB1571:
@ /opt/venus/walnascar-arm-cortexa8hf-neon/sysroots/cortexa8hf-neon-oe-linux-gnueabi/usr/include/qt6/QtCore/qarraydata.h:170:             (quintptr(data) + sizeof(QArrayData) + alignment - 1) & ~(alignment - 1));
	.loc 3 170 62 is_stmt 0 view .LVU653
	add	r3, r3, #19	@ _150, _146,
.LBE1571:
.LBE1570:
@ /opt/venus/walnascar-arm-cortexa8hf-neon/sysroots/cortexa8hf-neon-oe-linux-gnueabi/usr/include/qt6/QtCore/qarraydatapointer.h:469:         return this->ptr - Data::dataStart(d, alignof(typename Data::AlignmentDummy));
	.loc 2 469 22 view .LVU654
	ldr	r1, [r4, #4]	@ pretmp_337, MEM[(const struct QArrayDataPointer *)this_18(D)].ptr
.LVL180:
.LBB1573:
.LBI1570:
	.loc 3 165 15 is_stmt 1 view .LVU655
.LBB1572:
@ /opt/venus/walnascar-arm-cortexa8hf-neon/sysroots/cortexa8hf-neon-oe-linux-gnueabi/usr/include/qt6/QtCore/qarraydata.h:170:             (quintptr(data) + sizeof(QArrayData) + alignment - 1) & ~(alignment - 1));
	.loc 3 170 67 is_stmt 0 view .LVU656
	bic	r3, r3, #7	@ _151, _150,
.LBE1572:
.LBE1573:
@ /opt/venus/walnascar-arm-cortexa8hf-neon/sysroots/cortexa8hf-neon-oe-linux-gnueabi/usr/include/qt6/QtCore/qarraydatapointer.h:469:         return this->ptr - Data::dataStart(d, alignof(typename Data::AlignmentDummy));
	.loc 2 469 85 discriminator 1 view .LVU657
	movw	ip, #43691	@ tmp248,
	movt	ip, 43690	@ tmp248,
@ /opt/venus/walnascar-arm-cortexa8hf-neon/sysroots/cortexa8hf-neon-oe-linux-gnueabi/usr/include/qt6/QtCore/qarraydatapointer.h:469:         return this->ptr - Data::dataStart(d, alignof(typename Data::AlignmentDummy));
	.loc 2 469 26 discriminator 1 view .LVU658
	sub	r3, r1, r3	@ _153, pretmp_337, _151
.LBE1569:
.LBE1568:
@ /opt/venus/walnascar-arm-cortexa8hf-neon/sysroots/cortexa8hf-neon-oe-linux-gnueabi/usr/include/qt6/QtCore/qarraydatapointer.h:476:         return d->constAllocatedCapacity() - freeSpaceAtBegin() - this->size;
	.loc 2 476 73 discriminator 2 view .LVU659
	ldr	r2, [r4, #8]	@ pretmp_339, MEM[(const struct QArrayDataPointer *)this_18(D)].size
.LBB1575:
.LBB1574:
@ /opt/venus/walnascar-arm-cortexa8hf-neon/sysroots/cortexa8hf-neon-oe-linux-gnueabi/usr/include/qt6/QtCore/qarraydatapointer.h:469:         return this->ptr - Data::dataStart(d, alignof(typename Data::AlignmentDummy));
	.loc 2 469 85 discriminator 1 view .LVU660
	asr	r0, r3, #2	@ tmp246, _153,
	mul	r0, ip, r0	@ _154, tmp248, tmp246
.LVL181:
	.loc 2 469 85 discriminator 1 view .LVU661
.LBE1574:
.LBE1575:
@ /opt/venus/walnascar-arm-cortexa8hf-neon/sysroots/cortexa8hf-neon-oe-linux-gnueabi/usr/include/qt6/QtCore/qarraydatapointer.h:476:         return d->constAllocatedCapacity() - freeSpaceAtBegin() - this->size;
	.loc 2 476 44 discriminator 2 view .LVU662
	sub	ip, lr, r0	@ _155, _147, _154
.LBE1565:
.LBE1564:
@ /opt/venus/walnascar-arm-cortexa8hf-neon/sysroots/cortexa8hf-neon-oe-linux-gnueabi/usr/include/qt6/QtCore/qarraydatapointer.h:200:                 || (where == QArrayData::GrowsAtEnd && freeSpaceAtEnd() >= n))
	.loc 2 200 53 discriminator 4 view .LVU663
	cmp	ip, r2	@ _155, pretmp_339
	bgt	.L138		@,
.LVL182:
.LBB1576:
	.loc 2 269 10 is_stmt 1 view .LVU664
.LBB1558:
.LBB1533:
	.loc 2 450 15 view .LVU665
.LBB1527:
.LBI1527:
	.loc 3 51 15 view .LVU666
.LBB1528:
	.loc 3 53 9 view .LVU667
	.loc 3 53 9 is_stmt 0 view .LVU668
.LBE1528:
.LBE1527:
.LBE1533:
.LBB1534:
.LBI1534:
	.loc 2 465 15 is_stmt 1 view .LVU669
	.loc 2 465 15 is_stmt 0 view .LVU670
.LBE1534:
.LBB1537:
.LBI1537:
	.loc 2 472 15 is_stmt 1 view .LVU671
	.loc 2 472 15 is_stmt 0 view .LVU672
.LBE1537:
@ /opt/venus/walnascar-arm-cortexa8hf-neon/sysroots/cortexa8hf-neon-oe-linux-gnueabi/usr/include/qt6/QtCore/qarraydatapointer.h:289:         if (pos == QArrayData::GrowsAtEnd && freeAtBegin >= n
	.loc 2 289 9 view .LVU673
	cmp	r3, #0	@ _153,
	ble	.L178		@,
@ /opt/venus/walnascar-arm-cortexa8hf-neon/sysroots/cortexa8hf-neon-oe-linux-gnueabi/usr/include/qt6/QtCore/qarraydatapointer.h:290:             && ((3 * this->size) < (2 * capacity))) {
	.loc 2 290 20 view .LVU674
	add	r3, r2, r2, lsl #1	@ _174, pretmp_339, pretmp_339,
@ /opt/venus/walnascar-arm-cortexa8hf-neon/sysroots/cortexa8hf-neon-oe-linux-gnueabi/usr/include/qt6/QtCore/qarraydatapointer.h:290:             && ((3 * this->size) < (2 * capacity))) {
	.loc 2 290 13 view .LVU675
	cmp	r3, lr, lsl #1	@ _174, _147,
	bge	.L178		@,
.LBE1558:
.LBE1576:
.LBE1589:
.LBE1685:
@ /opt/venus/walnascar-arm-cortexa8hf-neon/sysroots/cortexa8hf-neon-oe-linux-gnueabi/usr/include/qt6/QtCore/qarraydataops.h:762:         const bool growsAtBegin = this->size != 0 && i == 0;
	.loc 7 762 51 discriminator 4 view .LVU676
	mov	r3, #0	@ _300,
	mov	r8, r3	@ _300, _300
.LVL183:
.L141:
.LBB1686:
.LBB1590:
.LBB1577:
.LBB1559:
.LBB1539:
.LBI1539:
	.loc 2 313 10 is_stmt 1 view .LVU677
.LBE1539:
@ /opt/venus/walnascar-arm-cortexa8hf-neon/sysroots/cortexa8hf-neon-oe-linux-gnueabi/usr/include/qt6/QtCore/qarraydatapointer.h:301:         relocate(dataStartOffset - freeAtBegin, data);
	.loc 2 301 17 is_stmt 0 view .LVU678
	sub	r3, r3, r0	@ _188, dataStartOffset, _154
.LVL184:
.LBB1546:
.LBB1540:
@ /opt/venus/walnascar-arm-cortexa8hf-neon/sysroots/cortexa8hf-neon-oe-linux-gnueabi/usr/include/qt6/QtCore/qarraydatapointer.h:315:         T *res = this->ptr + offset;
	.loc 2 315 28 view .LVU679
	mov	r0, #12	@ tmp261,
@ /opt/venus/walnascar-arm-cortexa8hf-neon/sysroots/cortexa8hf-neon-oe-linux-gnueabi/usr/include/qt6/QtCore/qarraydatapointer.h:315:         T *res = this->ptr + offset;
	.loc 2 315 12 view .LVU680
	mla	r7, r0, r3, r1	@ res, tmp261, _188, pretmp_337
.LVL185:
.LBB1541:
.LBI1541:
	.file 16 "/opt/venus/walnascar-arm-cortexa8hf-neon/sysroots/cortexa8hf-neon-oe-linux-gnueabi/usr/include/qt6/QtCore/qcontainertools_impl.h"
	.loc 16 236 6 is_stmt 1 view .LVU681
.LBB1542:
@ /opt/venus/walnascar-arm-cortexa8hf-neon/sysroots/cortexa8hf-neon-oe-linux-gnueabi/usr/include/qt6/QtCore/qcontainertools_impl.h:241:     if (n == N(0) || first == d_first || first == nullptr || d_first == nullptr)
	.loc 16 241 5 is_stmt 0 view .LVU682
	cmp	r7, r1	@ res, pretmp_337
	cmpne	r2, #0	@, pretmp_339,
	beq	.L145		@,
@ /opt/venus/walnascar-arm-cortexa8hf-neon/sysroots/cortexa8hf-neon-oe-linux-gnueabi/usr/include/qt6/QtCore/qcontainertools_impl.h:241:     if (n == N(0) || first == d_first || first == nullptr || d_first == nullptr)
	.loc 16 241 59 discriminator 1 view .LVU683
	cmp	r7, #0	@ res,
	cmpne	r1, #0	@, pretmp_337,
	beq	.L145		@,
.LVL186:
.LBB1543:
.LBI1543:
	.loc 16 236 6 is_stmt 1 view .LVU684
.LBB1544:
@ /opt/venus/walnascar-arm-cortexa8hf-neon/sysroots/cortexa8hf-neon-oe-linux-gnueabi/usr/include/qt6/QtCore/qcontainertools_impl.h:245:         std::memmove(static_cast<void *>(d_first), static_cast<const void *>(first), n * sizeof(T));
	.loc 16 245 21 is_stmt 0 view .LVU685
	mul	r2, r0, r2	@, tmp261, pretmp_339
	mov	r0, r7	@, res
	bl	memmove		@
.LVL187:
	.loc 16 245 21 view .LVU686
.LBE1544:
.LBE1543:
.LBE1542:
.LBE1541:
.LBE1540:
.LBE1546:
.LBE1559:
.LBE1577:
.LBE1590:
.LBE1686:
@ /opt/venus/walnascar-arm-cortexa8hf-neon/sysroots/cortexa8hf-neon-oe-linux-gnueabi/usr/include/qt6/QtCore/qarraydataops.h:770:             ++this->size;
	.loc 7 770 21 view .LVU687
	ldr	r2, [r4, #8]	@ pretmp_339, this_18(D)->D.168070.D.168038.size
.L145:
.LVL188:
@ /opt/venus/walnascar-arm-cortexa8hf-neon/sysroots/cortexa8hf-neon-oe-linux-gnueabi/usr/include/qt6/QtCore/qarraydataops.h:766:         if (growsAtBegin) {
	.loc 7 766 9 view .LVU688
	cmp	r8, #0	@ _300,
.LBB1687:
.LBB1591:
.LBB1578:
.LBB1560:
.LBB1547:
.LBB1545:
@ /opt/venus/walnascar-arm-cortexa8hf-neon/sysroots/cortexa8hf-neon-oe-linux-gnueabi/usr/include/qt6/QtCore/qarraydatapointer.h:320:         this->ptr = res;
	.loc 2 320 19 view .LVU689
	str	r7, [r4, #4]	@ res, MEM[(struct QArrayDataPointer *)this_18(D)].ptr
.LVL189:
	.loc 2 320 19 view .LVU690
.LBE1545:
.LBE1547:
.LBE1560:
.LBE1578:
.LBE1591:
.LBE1687:
	moveq	r1, r7	@ pretmp_337, res
@ /opt/venus/walnascar-arm-cortexa8hf-neon/sysroots/cortexa8hf-neon-oe-linux-gnueabi/usr/include/qt6/QtCore/qarraydataops.h:766:         if (growsAtBegin) {
	.loc 7 766 9 view .LVU691
	beq	.L138		@,
.LVL190:
.L135:
.LBB1688:
.LBI1681:
	.loc 2 122 8 is_stmt 1 view .LVU692
.LBB1684:
.LBI1682:
	.loc 2 119 8 view .LVU693
	.loc 2 119 8 is_stmt 0 view .LVU694
.LBE1684:
.LBE1688:
.LBB1689:
.LBI1689:
	.loc 9 226 12 is_stmt 1 view .LVU695
.LBB1690:
.LBI1690:
	.loc 2 77 5 view .LVU696
.LBB1691:
.LBB1692:
.LBB1693:
.LBI1693:
	.loc 15 114 5 view .LVU697
	.loc 15 114 5 is_stmt 0 view .LVU698
.LBE1693:
.LBB1694:
.LBI1694:
	.loc 15 114 5 is_stmt 1 view .LVU699
	.loc 15 114 5 is_stmt 0 view .LVU700
.LBE1694:
@ /opt/venus/walnascar-arm-cortexa8hf-neon/sysroots/cortexa8hf-neon-oe-linux-gnueabi/usr/include/qt6/QtCore/qarraydatapointer.h:78:         : d(std::exchange(other.d, nullptr)),
	.loc 2 78 11 discriminator 1 view .LVU701
	sub	r3, r7, #12	@ tmp280, res,
.LBE1692:
.LBE1691:
.LBE1690:
.LBE1689:
@ /opt/venus/walnascar-arm-cortexa8hf-neon/sysroots/cortexa8hf-neon-oe-linux-gnueabi/usr/include/qt6/QtCore/qarraydataops.h:770:             ++this->size;
	.loc 7 770 13 view .LVU702
	add	r2, r2, #1	@ _13, pretmp_339,
.LBB1699:
.LBB1698:
.LBB1697:
.LBB1696:
@ /opt/venus/walnascar-arm-cortexa8hf-neon/sysroots/cortexa8hf-neon-oe-linux-gnueabi/usr/include/qt6/QtCore/qarraydatapointer.h:78:         : d(std::exchange(other.d, nullptr)),
	.loc 2 78 11 discriminator 1 view .LVU703
	vst1.32	{d8}, [r3]	@ vect__124.245, MEM <vector(2) unsigned int> [(void *)prephitmp_342 + 4294967284B]
.LVL191:
.LBB1695:
.LBI1695:
	.loc 15 114 5 is_stmt 1 view .LVU704
	.loc 15 114 5 is_stmt 0 view .LVU705
.LBE1695:
@ /opt/venus/walnascar-arm-cortexa8hf-neon/sysroots/cortexa8hf-neon-oe-linux-gnueabi/usr/include/qt6/QtCore/qarraydatapointer.h:80:           size(std::exchange(other.size, 0))
	.loc 2 80 11 discriminator 1 view .LVU706
	str	r6, [r7, #-4]	@ _123, MEM[(struct QArrayDataPointer *)prephitmp_342 + 4294967284B].size
.LVL192:
	.loc 2 80 11 discriminator 1 view .LVU707
.LBE1696:
.LBE1697:
.LBE1698:
.LBE1699:
@ /opt/venus/walnascar-arm-cortexa8hf-neon/sysroots/cortexa8hf-neon-oe-linux-gnueabi/usr/include/qt6/QtCore/qarraydataops.h:769:             --this->ptr;
	.loc 7 769 13 view .LVU708
	str	r3, [r4, #4]	@ tmp280, this_18(D)->D.168070.D.168038.ptr
@ /opt/venus/walnascar-arm-cortexa8hf-neon/sysroots/cortexa8hf-neon-oe-linux-gnueabi/usr/include/qt6/QtCore/qarraydataops.h:770:             ++this->size;
	.loc 7 770 13 view .LVU709
	str	r2, [r4, #8]	@ _13, this_18(D)->D.168070.D.168038.size
.LVL193:
.LBB1700:
	.loc 9 1446 1 is_stmt 1 view .LVU710
.LBB1617:
	.loc 2 106 5 view .LVU711
.LBB1616:
	.loc 2 452 10 view .LVU712
	.loc 2 452 10 is_stmt 0 view .LVU713
.LBE1616:
.LBE1617:
.LBE1700:
@ /opt/venus/walnascar-arm-cortexa8hf-neon/sysroots/cortexa8hf-neon-oe-linux-gnueabi/usr/include/qt6/QtCore/qarraydataops.h:774:     }
	.loc 7 774 5 view .LVU714
	add	sp, sp, #20	@,,
	.cfi_remember_state
	.cfi_def_cfa_offset 36
	@ sp needed	@
	vldm	sp!, {d8}	@
	.cfi_restore 80
	.cfi_restore 81
	.cfi_def_cfa_offset 28
	pop	{r4, r5, r6, r7, r8, r9, pc}	@
.LVL194:
.L123:
	.cfi_restore_state
.LBB1701:
	.loc 9 1375 1 is_stmt 1 view .LVU715
.LBB1507:
	.loc 2 37 5 view .LVU716
.LBB1505:
.LBB1503:
	.loc 2 451 10 view .LVU717
.LBB1501:
@ /opt/venus/walnascar-arm-cortexa8hf-neon/sysroots/cortexa8hf-neon-oe-linux-gnueabi/usr/include/qt6/QtCore/qarraydatapointer.h:451:     void ref() noexcept { if (d) d->ref(); }
	.loc 2 451 27 is_stmt 0 view .LVU718
	cmp	lr, #0	@ _275,
	bne	.L149		@,
.LVL195:
	.loc 2 451 27 view .LVU719
.LBE1501:
.LBE1503:
.LBE1505:
.LBE1507:
.LBE1701:
.LBB1702:
	.loc 2 193 10 is_stmt 1 view .LVU720
.LBB1592:
.LBB1579:
	.loc 2 456 10 view .LVU721
.LBB1523:
@ /opt/venus/walnascar-arm-cortexa8hf-neon/sysroots/cortexa8hf-neon-oe-linux-gnueabi/usr/include/qt6/QtCore/qarraydatapointer.h:456:     bool needsDetach() const noexcept { return !d || d->needsDetach(); }
	.loc 2 456 51 is_stmt 0 view .LVU722
	cmp	r3, #0	@ _138,
	bne	.L128		@,
	b	.L137		@
.LVL196:
.L129:
	.loc 2 456 51 view .LVU723
.LBE1523:
.LBE1579:
@ /opt/venus/walnascar-arm-cortexa8hf-neon/sysroots/cortexa8hf-neon-oe-linux-gnueabi/usr/include/qt6/QtCore/qarraydatapointer.h:209:             reallocateAndGrow(where, n, old);
	.loc 2 209 30 view .LVU724
	mov	r2, #1	@,
	mov	r0, r4	@, this
	mov	r1, r2	@,
	bl	_ZN17QArrayDataPointerI7QStringE17reallocateAndGrowEN10QArrayData14GrowthPositionEiPS1_		@
.LVL197:
.LEHE3:
	.loc 2 209 30 view .LVU725
	b	.L184		@
.LVL198:
.L196:
.LBB1580:
.LBI1580:
	.loc 2 465 15 is_stmt 1 view .LVU726
.LBB1581:
@ /opt/venus/walnascar-arm-cortexa8hf-neon/sysroots/cortexa8hf-neon-oe-linux-gnueabi/usr/include/qt6/QtCore/qarraydatapointer.h:469:         return this->ptr - Data::dataStart(d, alignof(typename Data::AlignmentDummy));
	.loc 2 469 22 is_stmt 0 view .LVU727
	ldr	r7, [r4, #4]	@ res, MEM[(const struct QArrayDataPointer *)this_18(D)].ptr
.LVL199:
.LBB1582:
.LBI1582:
	.loc 3 165 15 is_stmt 1 view .LVU728
.LBB1583:
@ /opt/venus/walnascar-arm-cortexa8hf-neon/sysroots/cortexa8hf-neon-oe-linux-gnueabi/usr/include/qt6/QtCore/qarraydata.h:170:             (quintptr(data) + sizeof(QArrayData) + alignment - 1) & ~(alignment - 1));
	.loc 3 170 62 is_stmt 0 view .LVU729
	add	r0, r3, #19	@ _132, _138,
@ /opt/venus/walnascar-arm-cortexa8hf-neon/sysroots/cortexa8hf-neon-oe-linux-gnueabi/usr/include/qt6/QtCore/qarraydata.h:170:             (quintptr(data) + sizeof(QArrayData) + alignment - 1) & ~(alignment - 1));
	.loc 3 170 67 view .LVU730
	bic	r0, r0, #7	@ _133, _132,
.LBE1583:
.LBE1582:
.LBE1581:
.LBE1580:
.LBE1592:
.LBE1702:
@ /opt/venus/walnascar-arm-cortexa8hf-neon/sysroots/cortexa8hf-neon-oe-linux-gnueabi/usr/include/qt6/QtCore/qarraydataops.h:770:             ++this->size;
	.loc 7 770 21 view .LVU731
	mov	r2, r1	@ pretmp_339, pretmp_339
.LBB1703:
.LBB1593:
.LBB1585:
.LBB1584:
@ /opt/venus/walnascar-arm-cortexa8hf-neon/sysroots/cortexa8hf-neon-oe-linux-gnueabi/usr/include/qt6/QtCore/qarraydatapointer.h:469:         return this->ptr - Data::dataStart(d, alignof(typename Data::AlignmentDummy));
	.loc 2 469 26 discriminator 1 view .LVU732
	sub	r0, r7, r0	@ _135, res, _133
.LVL200:
	.loc 2 469 26 discriminator 1 view .LVU733
.LBE1584:
.LBE1585:
@ /opt/venus/walnascar-arm-cortexa8hf-neon/sysroots/cortexa8hf-neon-oe-linux-gnueabi/usr/include/qt6/QtCore/qarraydatapointer.h:199:             if (!n || (where == QArrayData::GrowsAtBeginning && freeSpaceAtBegin() >= n)
	.loc 2 199 62 discriminator 2 view .LVU734
	cmp	r0, #0	@ _135,
	bgt	.L135		@,
.LBB1586:
.LBB1561:
.LBB1548:
.LBB1535:
@ /opt/venus/walnascar-arm-cortexa8hf-neon/sysroots/cortexa8hf-neon-oe-linux-gnueabi/usr/include/qt6/QtCore/qarraydatapointer.h:469:         return this->ptr - Data::dataStart(d, alignof(typename Data::AlignmentDummy));
	.loc 2 469 85 discriminator 1 view .LVU735
	asr	r0, r0, #2	@ tmp296, _135,
	movw	ip, #43691	@ tmp298,
	movt	ip, 43690	@ tmp298,
.LBE1535:
.LBE1548:
.LBB1549:
.LBB1531:
.LBB1529:
@ /opt/venus/walnascar-arm-cortexa8hf-neon/sysroots/cortexa8hf-neon-oe-linux-gnueabi/usr/include/qt6/QtCore/qarraydata.h:53:         return alloc;
	.loc 3 53 16 view .LVU736
	ldr	r3, [r3, #8]	@ pretmp_49, MEM[(const struct QArrayData *)_129].alloc
.LBE1529:
.LBE1531:
.LBE1549:
.LBB1550:
.LBB1536:
@ /opt/venus/walnascar-arm-cortexa8hf-neon/sysroots/cortexa8hf-neon-oe-linux-gnueabi/usr/include/qt6/QtCore/qarraydatapointer.h:469:         return this->ptr - Data::dataStart(d, alignof(typename Data::AlignmentDummy));
	.loc 2 469 85 discriminator 1 view .LVU737
	mul	r0, ip, r0	@ _154, tmp298, tmp296
.LVL201:
	.loc 2 469 85 discriminator 1 view .LVU738
.LBE1536:
.LBE1550:
.LBE1561:
	.loc 2 269 10 is_stmt 1 view .LVU739
.LBB1562:
.LBB1551:
	.loc 2 450 15 view .LVU740
.LBB1532:
	.loc 3 51 15 view .LVU741
.LBB1530:
	.loc 3 53 9 view .LVU742
	.loc 3 53 9 is_stmt 0 view .LVU743
.LBE1530:
.LBE1532:
.LBE1551:
.LBB1552:
	.loc 2 465 15 is_stmt 1 view .LVU744
	.loc 2 465 15 is_stmt 0 view .LVU745
.LBE1552:
.LBB1553:
	.loc 2 472 15 is_stmt 1 view .LVU746
.LBB1538:
@ /opt/venus/walnascar-arm-cortexa8hf-neon/sysroots/cortexa8hf-neon-oe-linux-gnueabi/usr/include/qt6/QtCore/qarraydatapointer.h:476:         return d->constAllocatedCapacity() - freeSpaceAtBegin() - this->size;
	.loc 2 476 44 is_stmt 0 discriminator 2 view .LVU747
	sub	ip, r3, r0	@ _321, pretmp_49, _154
.LBE1538:
.LBE1553:
@ /opt/venus/walnascar-arm-cortexa8hf-neon/sysroots/cortexa8hf-neon-oe-linux-gnueabi/usr/include/qt6/QtCore/qarraydatapointer.h:292:         } else if (pos == QArrayData::GrowsAtBeginning && freeAtEnd >= n
	.loc 2 292 16 view .LVU748
	cmp	ip, r1	@ _321, pretmp_339
	ble	.L179		@,
@ /opt/venus/walnascar-arm-cortexa8hf-neon/sysroots/cortexa8hf-neon-oe-linux-gnueabi/usr/include/qt6/QtCore/qarraydatapointer.h:293:                    && ((3 * this->size) < capacity)) {
	.loc 2 293 27 view .LVU749
	add	r1, r2, r2, lsl #1	@ _181, pretmp_339, pretmp_339,
@ /opt/venus/walnascar-arm-cortexa8hf-neon/sysroots/cortexa8hf-neon-oe-linux-gnueabi/usr/include/qt6/QtCore/qarraydatapointer.h:293:                    && ((3 * this->size) < capacity)) {
	.loc 2 293 20 view .LVU750
	cmp	r3, r1	@ pretmp_49, _181
	ble	.L179		@,
@ /opt/venus/walnascar-arm-cortexa8hf-neon/sysroots/cortexa8hf-neon-oe-linux-gnueabi/usr/include/qt6/QtCore/qarraydatapointer.h:295:             dataStartOffset = n + qMax(0, (capacity - this->size - n) / 2);
	.loc 2 295 53 view .LVU751
	sub	r3, r3, r2	@ _182, pretmp_49, pretmp_339
@ /opt/venus/walnascar-arm-cortexa8hf-neon/sysroots/cortexa8hf-neon-oe-linux-gnueabi/usr/include/qt6/QtCore/qarraydatapointer.h:295:             dataStartOffset = n + qMax(0, (capacity - this->size - n) / 2);
	.loc 2 295 29 view .LVU752
	mov	r1, r7	@ pretmp_337, res
@ /opt/venus/walnascar-arm-cortexa8hf-neon/sysroots/cortexa8hf-neon-oe-linux-gnueabi/usr/include/qt6/QtCore/qarraydatapointer.h:295:             dataStartOffset = n + qMax(0, (capacity - this->size - n) / 2);
	.loc 2 295 66 view .LVU753
	sub	r3, r3, #1	@ _183, _182,
.LBB1554:
.LBI1554:
	.loc 10 21 27 is_stmt 1 view .LVU754
.LBB1555:
@ /opt/venus/walnascar-arm-cortexa8hf-neon/sysroots/cortexa8hf-neon-oe-linux-gnueabi/usr/include/qt6/QtCore/qminmax.h:21: constexpr inline const T &qMax(const T &a, const T &b) { return (a < b) ? b : a; }
	.loc 10 21 73 is_stmt 0 view .LVU755
	cmp	r3, #1	@ _183,
.LBE1555:
.LBE1554:
@ /opt/venus/walnascar-arm-cortexa8hf-neon/sysroots/cortexa8hf-neon-oe-linux-gnueabi/usr/include/qt6/QtCore/qarraydatapointer.h:295:             dataStartOffset = n + qMax(0, (capacity - this->size - n) / 2);
	.loc 2 295 71 view .LVU756
	asrgt	r3, r3, #1	@ _184, _183,
@ /opt/venus/walnascar-arm-cortexa8hf-neon/sysroots/cortexa8hf-neon-oe-linux-gnueabi/usr/include/qt6/QtCore/qarraydatapointer.h:295:             dataStartOffset = n + qMax(0, (capacity - this->size - n) / 2);
	.loc 2 295 29 discriminator 1 view .LVU757
	addgt	r3, r3, #1	@ dataStartOffset, _184,
.LBB1557:
.LBB1556:
	movle	r3, #1	@ dataStartOffset,
.LBE1556:
.LBE1557:
@ /opt/venus/walnascar-arm-cortexa8hf-neon/sysroots/cortexa8hf-neon-oe-linux-gnueabi/usr/include/qt6/QtCore/qarraydatapointer.h:295:             dataStartOffset = n + qMax(0, (capacity - this->size - n) / 2);
	.loc 2 295 29 view .LVU758
	b	.L141		@
.LVL202:
.L195:
	.loc 2 295 29 view .LVU759
.LBE1562:
.LBE1586:
.LBE1593:
.LBE1703:
.LBB1704:
.LBI1704:
	.loc 2 123 8 is_stmt 1 view .LVU760
.LBB1705:
@ /opt/venus/walnascar-arm-cortexa8hf-neon/sysroots/cortexa8hf-neon-oe-linux-gnueabi/usr/include/qt6/QtCore/qarraydatapointer.h:123:     T *end() noexcept { return data() + size; }
	.loc 2 123 39 is_stmt 0 discriminator 1 view .LVU761
	mov	r3, #12	@ tmp227,
.LBE1705:
.LBE1704:
.LBB1707:
.LBB1639:
.LBB1636:
.LBB1633:
.LBB1622:
.LBB1623:
@ /opt/venus/walnascar-arm-cortexa8hf-neon/sysroots/cortexa8hf-neon-oe-linux-gnueabi/usr/include/qt6/QtCore/qarraydatapointer.h:451:     void ref() noexcept { if (d) d->ref(); }
	.loc 2 451 27 view .LVU762
	cmp	lr, #0	@ _275,
.LBE1623:
.LBE1622:
.LBE1633:
.LBE1636:
.LBE1639:
.LBE1707:
.LBB1708:
.LBB1706:
@ /opt/venus/walnascar-arm-cortexa8hf-neon/sysroots/cortexa8hf-neon-oe-linux-gnueabi/usr/include/qt6/QtCore/qarraydatapointer.h:123:     T *end() noexcept { return data() + size; }
	.loc 2 123 41 discriminator 1 view .LVU763
	mla	r3, r3, r5, ip	@ _24, tmp227, i, prephitmp_51
.LVL203:
	.loc 2 123 41 discriminator 1 view .LVU764
.LBE1706:
.LBE1708:
.LBB1709:
.LBI1618:
	.loc 9 1375 1 is_stmt 1 view .LVU765
.LBB1640:
.LBI1619:
	.loc 2 37 5 view .LVU766
.LBB1637:
.LBB1634:
@ /opt/venus/walnascar-arm-cortexa8hf-neon/sysroots/cortexa8hf-neon-oe-linux-gnueabi/usr/include/qt6/QtCore/qarraydatapointer.h:38:         : d(other.d), ptr(other.ptr), size(other.size)
	.loc 2 38 11 is_stmt 0 view .LVU767
	vst1.32	{d8}, [r3]	@ vect__124.245, MEM <vector(2) unsigned int> [(void *)_24]
@ /opt/venus/walnascar-arm-cortexa8hf-neon/sysroots/cortexa8hf-neon-oe-linux-gnueabi/usr/include/qt6/QtCore/qarraydatapointer.h:38:         : d(other.d), ptr(other.ptr), size(other.size)
	.loc 2 38 39 view .LVU768
	str	r6, [r3, #8]	@ _123, MEM[(struct QArrayDataPointer *)_24].size
.LVL204:
.LBB1631:
.LBI1622:
	.loc 2 451 10 is_stmt 1 view .LVU769
.LBB1630:
@ /opt/venus/walnascar-arm-cortexa8hf-neon/sysroots/cortexa8hf-neon-oe-linux-gnueabi/usr/include/qt6/QtCore/qarraydatapointer.h:451:     void ref() noexcept { if (d) d->ref(); }
	.loc 2 451 27 is_stmt 0 view .LVU770
	beq	.L121		@,
.LVL205:
.LBB1624:
.LBI1624:
	.loc 3 57 10 is_stmt 1 view .LVU771
	.loc 3 59 9 view .LVU772
.LBB1625:
.LBI1625:
	.loc 4 47 10 view .LVU773
.LBB1626:
.LBB1627:
.LBI1627:
	.loc 5 244 24 view .LVU774
.LBB1628:
.LBI1628:
	.loc 6 629 7 view .LVU775
.LBB1629:
@ /opt/venus/walnascar-arm-cortexa8hf-neon/sysroots/cortexa8hf-neon-oe-linux-gnueabi/usr/include/c++/15.1.0/bits/atomic_base.h:631:       { return __atomic_fetch_add(&_M_i, __i, int(__m)); }
	.loc 6 631 34 is_stmt 0 view .LVU776
	dmb	ish	
.LVL206:
.L182:
	.loc 6 631 34 view .LVU777
	ldrex	r3, [lr]	@ tmp308,* _275
	add	r3, r3, #1	@ tmp308, tmp308,
	strex	r2, r3, [lr]	@ tmp309, tmp308,* _275
	cmp	r2, #0	@ tmp309,
	bne	.L182		@,
	dmb	ish	
.LVL207:
	.loc 6 631 34 view .LVU778
.LBE1629:
.LBE1628:
.LBE1627:
.LBE1626:
.LBE1625:
	.loc 3 60 9 is_stmt 1 view .LVU779
	.loc 3 60 9 is_stmt 0 view .LVU780
.LBE1624:
.LBE1630:
.LBE1631:
.LBE1634:
.LBE1637:
.LBE1640:
.LBE1709:
@ /opt/venus/walnascar-arm-cortexa8hf-neon/sysroots/cortexa8hf-neon-oe-linux-gnueabi/usr/include/qt6/QtCore/qarraydataops.h:751:                 ++this->size;
	.loc 7 751 25 view .LVU781
	ldr	r5, [r4, #8]	@ i, this_18(D)->D.168070.D.168038.size
.LVL208:
.L121:
@ /opt/venus/walnascar-arm-cortexa8hf-neon/sysroots/cortexa8hf-neon-oe-linux-gnueabi/usr/include/qt6/QtCore/qarraydataops.h:751:                 ++this->size;
	.loc 7 751 17 view .LVU782
	add	r5, r5, #1	@ _5, i,
	str	r5, [r4, #8]	@ _5, this_18(D)->D.168070.D.168038.size
@ /opt/venus/walnascar-arm-cortexa8hf-neon/sysroots/cortexa8hf-neon-oe-linux-gnueabi/usr/include/qt6/QtCore/qarraydataops.h:752:                 return;
	.loc 7 752 17 view .LVU783
	b	.L116		@
.LVL209:
.L158:
.LBB1710:
.LBI1710:
	.loc 9 1446 1 is_stmt 1 view .LVU784
.LBB1711:
@ /opt/venus/walnascar-arm-cortexa8hf-neon/sysroots/cortexa8hf-neon-oe-linux-gnueabi/usr/include/qt6/QtCore/qstring.h:1446: QString::~QString() {}
	.loc 9 1446 22 is_stmt 0 view .LVU785
	mov	r0, sp	@,
.LVL210:
	.loc 9 1446 22 view .LVU786
	vstr	d8, [sp]	@, MEM <vector(2) unsigned int> [(struct QString *)&tmp]
	str	r6, [sp, #8]	@ _123, MEM <int> [(struct QString *)&tmp + 8B]
	bl	_ZN17QArrayDataPointerIDsED1Ev		@
.LVL211:
.LEHB4:
	.loc 9 1446 22 view .LVU787
	bl	__cxa_end_cleanup		@
.LVL212:
.LEHE4:
.LBE1711:
.LBE1710:
	.cfi_endproc
.LFE9476:
	.personality	__gxx_personality_v0
	.handlerdata
.LLSDA9476:
	.byte	0xff
	.byte	0xff
	.byte	0x1
	.uleb128 .LLSDACSE9476-.LLSDACSB9476
.LLSDACSB9476:
	.uleb128 .LEHB3-.LFB9476
	.uleb128 .LEHE3-.LEHB3
	.uleb128 .L158-.LFB9476
	.uleb128 0
	.uleb128 .LEHB4-.LFB9476
	.uleb128 .LEHE4-.LEHB4
	.uleb128 0
	.uleb128 0
.LLSDACSE9476:
	.section	.text._ZN9QtPrivate16QMovableArrayOpsI7QStringE7emplaceIJRKS1_EEEviDpOT_,"axG",%progbits,_ZN9QtPrivate16QMovableArrayOpsI7QStringE7emplaceIJRKS1_EEEviDpOT_,comdat
	.fnend
	.size	_ZN9QtPrivate16QMovableArrayOpsI7QStringE7emplaceIJRKS1_EEEviDpOT_, .-_ZN9QtPrivate16QMovableArrayOpsI7QStringE7emplaceIJRKS1_EEEviDpOT_
	.section	.rodata.str1.4,"aMS",%progbits,1
	.align	2
.LC0:
	.ascii	".\000"
	.section	.text.startup.main,"ax",%progbits
	.align	2
	.global	main
	.syntax unified
	.arm
	.type	main, %function
main:
	.fnstart
.LFB8030:
	.loc 1 4 1 is_stmt 1 view -0
	.cfi_startproc
	@ args = 0, pretend = 0, frame = 24
	@ frame_needed = 0, uses_anonymous_args = 0
	.loc 1 5 2 view .LVU789
@ test.cpp:4: {
	.loc 1 4 1 is_stmt 0 view .LVU790
	push	{r4, lr}	@
	.save {r4, lr}
	.cfi_def_cfa_offset 8
	.cfi_offset 4, -8
	.cfi_offset 14, -4
	.pad #24
	sub	sp, sp, #24	@,,
	.cfi_def_cfa_offset 32
.LVL213:
.LBB1763:
.LBI1763:
	.loc 9 958 12 is_stmt 1 view .LVU791
.LBB1764:
.LBB1765:
.LBB1766:
.LBI1766:
	.file 17 "/opt/venus/walnascar-arm-cortexa8hf-neon/sysroots/cortexa8hf-neon-oe-linux-gnueabi/usr/include/qt6/QtCore/qbytearrayview.h"
	.loc 17 159 15 view .LVU792
.LBB1767:
	.loc 17 77 20 view .LVU793
	.loc 17 77 20 is_stmt 0 view .LVU794
.LBE1767:
.LBB1768:
.LBI1768:
	.loc 17 146 15 is_stmt 1 view .LVU795
.LBE1768:
.LBE1766:
@ /opt/venus/walnascar-arm-cortexa8hf-neon/sysroots/cortexa8hf-neon-oe-linux-gnueabi/usr/include/qt6/QtCore/qstring.h:959:         : QString(fromUtf8(ch))
	.loc 9 959 31 is_stmt 0 discriminator 1 view .LVU796
	add	r4, sp, #12	@ tmp139,,
.LVL214:
.LBB1776:
.LBB1774:
.LBB1769:
.LBB1770:
@ /opt/venus/walnascar-arm-cortexa8hf-neon/sysroots/cortexa8hf-neon-oe-linux-gnueabi/usr/include/qt6/QtCore/qbytearrayview.h:147:         : m_size((Q_ASSERT(len >= 0), Q_ASSERT(data || !len), len)),
	.loc 17 147 11 view .LVU797
	mov	r2, #1	@ tmp120,
.LBE1770:
.LBE1769:
.LBE1774:
.LBE1776:
@ /opt/venus/walnascar-arm-cortexa8hf-neon/sysroots/cortexa8hf-neon-oe-linux-gnueabi/usr/include/qt6/QtCore/qstring.h:959:         : QString(fromUtf8(ch))
	.loc 9 959 31 discriminator 1 view .LVU798
	mov	r0, sp	@,
.LVL215:
.LBB1777:
.LBB1775:
.LBB1773:
.LBB1772:
@ /opt/venus/walnascar-arm-cortexa8hf-neon/sysroots/cortexa8hf-neon-oe-linux-gnueabi/usr/include/qt6/QtCore/qbytearrayview.h:147:         : m_size((Q_ASSERT(len >= 0), Q_ASSERT(data || !len), len)),
	.loc 17 147 11 view .LVU799
	str	r2, [sp, #12]	@ tmp120, MEM[(struct QByteArrayView *)_19].m_size
.LVL216:
.LBB1771:
.LBI1771:
	.loc 17 136 42 is_stmt 1 view .LVU800
	.loc 17 137 7 view .LVU801
	.loc 17 137 7 is_stmt 0 view .LVU802
.LBE1771:
@ /opt/venus/walnascar-arm-cortexa8hf-neon/sysroots/cortexa8hf-neon-oe-linux-gnueabi/usr/include/qt6/QtCore/qbytearrayview.h:148:           m_data(castHelper(data)) {}
	.loc 17 148 11 discriminator 1 view .LVU803
	movw	r3, #:lower16:.LC0	@ tmp121,
	movt	r3, #:upper16:.LC0	@ tmp121,
	str	r3, [sp, #16]	@ tmp121, MEM[(struct QByteArrayView *)_19].m_data
.LVL217:
	.loc 17 148 11 discriminator 1 view .LVU804
.LBE1772:
.LBE1773:
.LBE1775:
.LBE1777:
@ /opt/venus/walnascar-arm-cortexa8hf-neon/sysroots/cortexa8hf-neon-oe-linux-gnueabi/usr/include/qt6/QtCore/qstring.h:959:         : QString(fromUtf8(ch))
	.loc 9 959 31 discriminator 1 view .LVU805
	ldm	r4, {r1, r2}	@ tmp139,,
.LEHB5:
	bl	_ZN7QString8fromUtf8E14QByteArrayView		@
.LVL218:
.LEHE5:
	.loc 9 959 31 discriminator 1 view .LVU806
.LBE1765:
.LBE1764:
.LBE1763:
	.loc 1 6 2 is_stmt 1 view .LVU807
	vmov.i32	d16, #0  @ v8qi	@ tmp125,
.LBB1778:
.LBB1779:
.LBB1780:
.LBB1781:
@ /opt/venus/walnascar-arm-cortexa8hf-neon/sysroots/cortexa8hf-neon-oe-linux-gnueabi/usr/include/qt6/QtCore/qlist.h:941:     d->emplace(d->size, std::forward<Args>(args)...);
	.file 18 "/opt/venus/walnascar-arm-cortexa8hf-neon/sysroots/cortexa8hf-neon-oe-linux-gnueabi/usr/include/qt6/QtCore/qlist.h"
	.loc 18 941 15 is_stmt 0 discriminator 2 view .LVU808
	mov	r1, #0	@,
	mov	r2, sp	@,
	mov	r0, r4	@, tmp139
.LBE1781:
.LBE1780:
.LBE1779:
.LBE1778:
@ test.cpp:6: 	QStringList() << dirEntry;
	.loc 1 6 2 view .LVU809
	vstr	d16, [sp, #12]	@, MEM[(struct QList *)_19]
	vstr	d16, [r4, #4]	@, MEM[(struct QList *)_19]
.LVL219:
.LBB1803:
.LBI1778:
	.loc 18 767 22 is_stmt 1 view .LVU810
.LBB1801:
.LBI1779:
	.loc 18 515 10 view .LVU811
.LBB1799:
.LBI1780:
	.loc 18 939 37 view .LVU812
.LEHB6:
.LBB1797:
@ /opt/venus/walnascar-arm-cortexa8hf-neon/sysroots/cortexa8hf-neon-oe-linux-gnueabi/usr/include/qt6/QtCore/qlist.h:941:     d->emplace(d->size, std::forward<Args>(args)...);
	.loc 18 941 15 is_stmt 0 discriminator 2 view .LVU813
	bl	_ZN9QtPrivate16QMovableArrayOpsI7QStringE7emplaceIJRKS1_EEEviDpOT_		@
.LVL220:
.LEHE6:
	.loc 18 941 15 discriminator 2 view .LVU814
	ldr	r2, [sp, #12]	@ SR.260, MEM <struct Data * const> [(struct QList *)_19]
.LVL221:
.LBB1782:
.LBI1782:
	.loc 18 683 14 is_stmt 1 view .LVU815
.LBB1783:
.LBI1783:
	.loc 18 483 10 view .LVU816
.LBB1784:
.LBI1784:
	.loc 2 142 10 view .LVU817
.LBB1785:
.LBI1785:
	.loc 2 456 10 view .LVU818
.LBB1786:
@ /opt/venus/walnascar-arm-cortexa8hf-neon/sysroots/cortexa8hf-neon-oe-linux-gnueabi/usr/include/qt6/QtCore/qarraydatapointer.h:456:     bool needsDetach() const noexcept { return !d || d->needsDetach(); }
	.loc 2 456 51 is_stmt 0 view .LVU819
	cmp	r2, #0	@ SR.260,
	beq	.L200		@,
.LVL222:
.LBB1787:
.LBI1787:
	.loc 3 77 10 is_stmt 1 view .LVU820
	.loc 3 79 9 view .LVU821
.LBB1788:
.LBI1788:
	.loc 4 36 7 view .LVU822
.LBB1789:
.LBI1789:
	.loc 5 200 7 view .LVU823
.LBB1790:
.LBI1790:
	.loc 6 494 7 view .LVU824
.LBB1791:
	.loc 6 498 2 view .LVU825
	.loc 6 499 2 view .LVU826
@ /opt/venus/walnascar-arm-cortexa8hf-neon/sysroots/cortexa8hf-neon-oe-linux-gnueabi/usr/include/c++/15.1.0/bits/atomic_base.h:501: 	return __atomic_load_n(&_M_i, int(__m));
	.loc 6 501 24 is_stmt 0 view .LVU827
	ldr	r3, [r2]	@ _36,* SR.260
.LVL223:
	.loc 6 501 24 view .LVU828
.LBE1791:
.LBE1790:
.LBE1789:
.LBE1788:
.LBE1787:
@ /opt/venus/walnascar-arm-cortexa8hf-neon/sysroots/cortexa8hf-neon-oe-linux-gnueabi/usr/include/qt6/QtCore/qarraydatapointer.h:456:     bool needsDetach() const noexcept { return !d || d->needsDetach(); }
	.loc 2 456 51 discriminator 3 view .LVU829
	cmp	r3, #1	@ _36,
	ble	.L201		@,
.LVL224:
.L200:
	.loc 2 456 51 discriminator 3 view .LVU830
.LBE1786:
.LBE1785:
.LBB1792:
.LBI1792:
	.loc 2 142 10 is_stmt 1 view .LVU831
.LBB1793:
@ /opt/venus/walnascar-arm-cortexa8hf-neon/sysroots/cortexa8hf-neon-oe-linux-gnueabi/usr/include/qt6/QtCore/qarraydatapointer.h:145:             reallocateAndGrow(QArrayData::GrowsAtEnd, 0, old);
	.loc 2 145 30 is_stmt 0 view .LVU832
	mov	r3, #0	@,
	str	r2, [sp, #12]	@ SR.260, MEM <struct Data * const> [(struct QList *)_19]
	mov	r1, r3	@,
	mov	r2, r3	@,
	mov	r0, r4	@, tmp139
.LEHB7:
	bl	_ZN17QArrayDataPointerI7QStringE17reallocateAndGrowEN10QArrayData14GrowthPositionEiPS1_		@
.LVL225:
.LEHE7:
	ldr	r2, [sp, #12]	@ SR.260, MEM <struct Data * const> [(struct QList *)_19]
.LVL226:
.L201:
	.loc 2 145 30 view .LVU833
.LBE1793:
.LBE1792:
.LBE1784:
.LBE1783:
.LBB1794:
.LBI1794:
	.loc 18 124 35 is_stmt 1 view .LVU834
	.loc 18 124 35 is_stmt 0 view .LVU835
.LBE1794:
.LBE1782:
.LBB1795:
.LBI1795:
	.loc 18 189 25 is_stmt 1 view .LVU836
.LBB1796:
.LBI1796:
	.loc 18 124 35 view .LVU837
	.loc 18 124 35 is_stmt 0 view .LVU838
.LBE1796:
.LBE1795:
.LBE1797:
.LBE1799:
.LBE1801:
.LBE1803:
.LBB1804:
.LBI1804:
	.loc 18 76 7 is_stmt 1 view .LVU839
.LBB1805:
	mov	r0, r4	@, tmp139
	str	r2, [sp, #12]	@ SR.260, MEM <struct Data * const> [(struct QList *)_19]
	bl	_ZN17QArrayDataPointerI7QStringED1Ev		@
.LVL227:
	.loc 18 76 7 is_stmt 0 view .LVU840
.LBE1805:
.LBE1804:
	.loc 1 8 2 is_stmt 1 view .LVU841
.LBB1806:
.LBI1806:
	.loc 9 1446 1 view .LVU842
.LBB1807:
@ /opt/venus/walnascar-arm-cortexa8hf-neon/sysroots/cortexa8hf-neon-oe-linux-gnueabi/usr/include/qt6/QtCore/qstring.h:1446: QString::~QString() {}
	.loc 9 1446 22 is_stmt 0 view .LVU843
	mov	r0, sp	@,
.LVL228:
	.loc 9 1446 22 view .LVU844
	bl	_ZN17QArrayDataPointerIDsED1Ev		@
.LVL229:
	.loc 9 1446 22 view .LVU845
.LBE1807:
.LBE1806:
@ test.cpp:9: }
	.loc 1 9 1 view .LVU846
	mov	r0, #0	@,
	add	sp, sp, #24	@,,
	.cfi_remember_state
	.cfi_def_cfa_offset 8
	@ sp needed	@
	pop	{r4, pc}	@
.LVL230:
.L206:
	.cfi_restore_state
.L210:
.LBB1808:
.LBB1802:
.LBB1800:
.LBB1798:
@ /opt/venus/walnascar-arm-cortexa8hf-neon/sysroots/cortexa8hf-neon-oe-linux-gnueabi/usr/include/qt6/QtCore/qlist.h:941:     d->emplace(d->size, std::forward<Args>(args)...);
	.loc 18 941 15 discriminator 2 view .LVU847
	ldr	r3, [sp, #12]	@ SR.260, MEM <struct Data * const> [(struct QList *)_19]
.LVL231:
	.loc 18 941 15 discriminator 2 view .LVU848
.LBE1798:
.LBE1800:
.LBE1802:
.LBE1808:
.LBB1809:
.LBI1809:
	.loc 18 76 7 is_stmt 1 view .LVU849
.LBB1810:
	mov	r0, r4	@, tmp139
	str	r3, [sp, #12]	@ SR.260, MEM <struct Data * const> [(struct QList *)_19]
	bl	_ZN17QArrayDataPointerI7QStringED1Ev		@
.LVL232:
	.loc 18 76 7 is_stmt 0 view .LVU850
.LBE1810:
.LBE1809:
.LBB1811:
.LBI1811:
	.loc 9 1446 1 is_stmt 1 view .LVU851
.LBB1812:
@ /opt/venus/walnascar-arm-cortexa8hf-neon/sysroots/cortexa8hf-neon-oe-linux-gnueabi/usr/include/qt6/QtCore/qstring.h:1446: QString::~QString() {}
	.loc 9 1446 22 is_stmt 0 view .LVU852
	mov	r0, sp	@,
.LVL233:
	.loc 9 1446 22 view .LVU853
	bl	_ZN17QArrayDataPointerIDsED1Ev		@
.LVL234:
.LEHB8:
	.loc 9 1446 22 view .LVU854
	bl	__cxa_end_cleanup		@
.LVL235:
.LEHE8:
.L205:
	.loc 9 1446 22 view .LVU855
	b	.L210		@
.LBE1812:
.LBE1811:
	.cfi_endproc
.LFE8030:
	.personality	__gxx_personality_v0
	.handlerdata
.LLSDA8030:
	.byte	0xff
	.byte	0xff
	.byte	0x1
	.uleb128 .LLSDACSE8030-.LLSDACSB8030
.LLSDACSB8030:
	.uleb128 .LEHB5-.LFB8030
	.uleb128 .LEHE5-.LEHB5
	.uleb128 0
	.uleb128 0
	.uleb128 .LEHB6-.LFB8030
	.uleb128 .LEHE6-.LEHB6
	.uleb128 .L206-.LFB8030
	.uleb128 0
	.uleb128 .LEHB7-.LFB8030
	.uleb128 .LEHE7-.LEHB7
	.uleb128 .L205-.LFB8030
	.uleb128 0
	.uleb128 .LEHB8-.LFB8030
	.uleb128 .LEHE8-.LEHB8
	.uleb128 0
	.uleb128 0
.LLSDACSE8030:
	.section	.text.startup.main
	.fnend
	.size	main, .-main
	.hidden	qt_version_tag_use
	.weak	qt_version_tag_use
	.section	.qtversion,"aG",%progbits,qt_version_tag_use,comdat
	.align	2
	.type	qt_version_tag_use, %gnu_unique_object
	.size	qt_version_tag_use, 8
qt_version_tag_use:
@ symbol:
	.word	qt_version_tag
@ version:
	.word	395776
	.text
.Letext0:
	.file 19 "/opt/venus/walnascar-arm-cortexa8hf-neon/sysroots/cortexa8hf-neon-oe-linux-gnueabi/usr/include/c++/15.1.0/type_traits"
	.file 20 "/opt/venus/walnascar-arm-cortexa8hf-neon/sysroots/cortexa8hf-neon-oe-linux-gnueabi/usr/include/c++/15.1.0/bits/utility.h"
	.file 21 "/opt/venus/walnascar-arm-cortexa8hf-neon/sysroots/cortexa8hf-neon-oe-linux-gnueabi/usr/include/c++/15.1.0/cstddef"
	.file 22 "/opt/venus/walnascar-arm-cortexa8hf-neon/sysroots/cortexa8hf-neon-oe-linux-gnueabi/usr/include/c++/15.1.0/cstdint"
	.file 23 "/opt/venus/walnascar-arm-cortexa8hf-neon/sysroots/cortexa8hf-neon-oe-linux-gnueabi/usr/include/c++/15.1.0/bits/stl_iterator_base_types.h"
	.file 24 "/opt/venus/walnascar-arm-cortexa8hf-neon/sysroots/cortexa8hf-neon-oe-linux-gnueabi/usr/include/c++/15.1.0/debug/debug.h"
	.file 25 "/opt/venus/walnascar-arm-cortexa8hf-neon/sysroots/cortexa8hf-neon-oe-linux-gnueabi/usr/include/c++/15.1.0/cstdlib"
	.file 26 "/opt/venus/walnascar-arm-cortexa8hf-neon/sysroots/cortexa8hf-neon-oe-linux-gnueabi/usr/include/c++/15.1.0/atomic"
	.file 27 "/opt/venus/walnascar-arm-cortexa8hf-neon/sysroots/cortexa8hf-neon-oe-linux-gnueabi/usr/include/c++/15.1.0/arm-oe-linux-gnueabi/bits/c++config.h"
	.file 28 "/opt/venus/walnascar-arm-cortexa8hf-neon/sysroots/cortexa8hf-neon-oe-linux-gnueabi/usr/include/c++/15.1.0/bits/exception_ptr.h"
	.file 29 "/opt/venus/walnascar-arm-cortexa8hf-neon/sysroots/cortexa8hf-neon-oe-linux-gnueabi/usr/include/c++/15.1.0/variant"
	.file 30 "/opt/venus/walnascar-arm-cortexa8hf-neon/sysroots/cortexa8hf-neon-oe-linux-gnueabi/usr/include/c++/15.1.0/cmath"
	.file 31 "/opt/venus/walnascar-arm-cortexa8hf-neon/sysroots/cortexa8hf-neon-oe-linux-gnueabi/usr/include/c++/15.1.0/initializer_list"
	.file 32 "/opt/venus/walnascar-arm-cortexa8hf-neon/sysroots/cortexa8hf-neon-oe-linux-gnueabi/usr/include/c++/15.1.0/cstring"
	.file 33 "/opt/venus/walnascar-arm-cortexa8hf-neon/sysroots/cortexa8hf-neon-oe-linux-gnueabi/usr/include/c++/15.1.0/cwchar"
	.file 34 "/opt/venus/walnascar-arm-cortexa8hf-neon/sysroots/cortexa8hf-neon-oe-linux-gnueabi/usr/include/c++/15.1.0/clocale"
	.file 35 "/opt/venus/walnascar-arm-cortexa8hf-neon/sysroots/cortexa8hf-neon-oe-linux-gnueabi/usr/include/c++/15.1.0/bits/char_traits.h"
	.file 36 "/opt/venus/walnascar-arm-cortexa8hf-neon/sysroots/cortexa8hf-neon-oe-linux-gnueabi/usr/include/c++/15.1.0/bits/new_allocator.h"
	.file 37 "/opt/venus/walnascar-arm-cortexa8hf-neon/sysroots/cortexa8hf-neon-oe-linux-gnueabi/usr/include/c++/15.1.0/bits/allocator.h"
	.file 38 "/opt/venus/walnascar-arm-cortexa8hf-neon/sysroots/cortexa8hf-neon-oe-linux-gnueabi/usr/include/c++/15.1.0/bits/stl_function.h"
	.file 39 "/opt/venus/walnascar-arm-cortexa8hf-neon/sysroots/cortexa8hf-neon-oe-linux-gnueabi/usr/include/c++/15.1.0/string_view"
	.file 40 "/opt/venus/walnascar-arm-cortexa8hf-neon/sysroots/cortexa8hf-neon-oe-linux-gnueabi/usr/include/c++/15.1.0/bits/stl_iterator.h"
	.file 41 "/opt/venus/walnascar-arm-cortexa8hf-neon/sysroots/cortexa8hf-neon-oe-linux-gnueabi/usr/include/c++/15.1.0/cstdio"
	.file 42 "/opt/venus/walnascar-arm-cortexa8hf-neon/sysroots/cortexa8hf-neon-oe-linux-gnueabi/usr/include/c++/15.1.0/bits/alloc_traits.h"
	.file 43 "/opt/venus/walnascar-arm-cortexa8hf-neon/sysroots/cortexa8hf-neon-oe-linux-gnueabi/usr/include/c++/15.1.0/bits/basic_string.h"
	.file 44 "/opt/venus/walnascar-arm-cortexa8hf-neon/sysroots/cortexa8hf-neon-oe-linux-gnueabi/usr/include/c++/15.1.0/bits/stringfwd.h"
	.file 45 "/opt/venus/walnascar-arm-cortexa8hf-neon/sysroots/cortexa8hf-neon-oe-linux-gnueabi/usr/include/c++/15.1.0/bits/shared_ptr_base.h"
	.file 46 "/opt/venus/walnascar-arm-cortexa8hf-neon/sysroots/cortexa8hf-neon-oe-linux-gnueabi/usr/include/c++/15.1.0/functional"
	.file 47 "/opt/venus/walnascar-arm-cortexa8hf-neon/sysroots/cortexa8hf-neon-oe-linux-gnueabi/usr/include/c++/15.1.0/bits/std_abs.h"
	.file 48 "/opt/venus/walnascar-arm-cortexa8hf-neon/sysroots/cortexa8hf-neon-oe-linux-gnueabi/usr/include/c++/15.1.0/bits/stl_iterator_base_funcs.h"
	.file 49 "/opt/venus/walnascar-arm-cortexa8hf-neon/sysroots/cortexa8hf-neon-oe-linux-gnueabi/usr/include/c++/15.1.0/bits/range_access.h"
	.file 50 "/opt/venus/walnascar-arm-cortexa8hf-neon/sysroots/cortexa8hf-neon-oe-linux-gnueabi/usr/include/qt6/QtCore/qtclasshelpermacros.h"
	.file 51 "/opt/venus/walnascar-arm-cortexa8hf-neon/sysroots/cortexa8hf-neon-oe-linux-gnueabi/usr/include/qt6/QtCore/qversiontagging.h"
	.file 52 "/opt/venus/walnascar-arm-cortexa8hf-neon/sysroots/cortexa8hf-neon-oe-linux-gnueabi/usr/include/qt6/QtCore/qcontainerfwd.h"
	.file 53 "/opt/venus/walnascar-arm-cortexa8hf-neon/sysroots/cortexa8hf-neon-oe-linux-gnueabi/usr/include/qt6/QtCore/qcompare.h"
	.file 54 "/opt/venus/walnascar-arm-cortexa8hf-neon/sysroots/cortexa8hf-neon-oe-linux-gnueabi/usr/include/qt6/QtCore/qutf8stringview.h"
	.file 55 "/opt/venus/walnascar-arm-cortexa8hf-neon/sysroots/cortexa8hf-neon-oe-linux-gnueabi/usr/include/c++/15.1.0/bits/memory_resource.h"
	.file 56 "/opt/venus/walnascar-arm-cortexa8hf-neon/sysroots/cortexa8hf-neon-oe-linux-gnueabi/usr/include/qt6/QtCore/qstringtokenizer.h"
	.file 57 "/opt/venus/walnascar-arm-cortexa8hf-neon/sysroots/x86_64-ve-linux/usr/lib/arm-oe-linux-gnueabi/gcc/arm-oe-linux-gnueabi/15.1.0/include/stddef.h"
	.file 58 "/opt/venus/walnascar-arm-cortexa8hf-neon/sysroots/cortexa8hf-neon-oe-linux-gnueabi/usr/include/bits/types.h"
	.file 59 "/opt/venus/walnascar-arm-cortexa8hf-neon/sysroots/cortexa8hf-neon-oe-linux-gnueabi/usr/include/bits/stdint-intn.h"
	.file 60 "/opt/venus/walnascar-arm-cortexa8hf-neon/sysroots/cortexa8hf-neon-oe-linux-gnueabi/usr/include/bits/stdint-uintn.h"
	.file 61 "/opt/venus/walnascar-arm-cortexa8hf-neon/sysroots/cortexa8hf-neon-oe-linux-gnueabi/usr/include/bits/stdint-least.h"
	.file 62 "/opt/venus/walnascar-arm-cortexa8hf-neon/sysroots/cortexa8hf-neon-oe-linux-gnueabi/usr/include/stdint.h"
	.file 63 "/opt/venus/walnascar-arm-cortexa8hf-neon/sysroots/cortexa8hf-neon-oe-linux-gnueabi/usr/include/qt6/QtCore/qtypes.h"
	.file 64 "/opt/venus/walnascar-arm-cortexa8hf-neon/sysroots/cortexa8hf-neon-oe-linux-gnueabi/usr/include/qt6/QtCore/qbytearray.h"
	.file 65 "/opt/venus/walnascar-arm-cortexa8hf-neon/sysroots/cortexa8hf-neon-oe-linux-gnueabi/usr/include/c++/15.1.0/bits/predefined_ops.h"
	.file 66 "/opt/venus/walnascar-arm-cortexa8hf-neon/sysroots/cortexa8hf-neon-oe-linux-gnueabi/usr/include/c++/15.1.0/ext/alloc_traits.h"
	.file 67 "/opt/venus/walnascar-arm-cortexa8hf-neon/sysroots/cortexa8hf-neon-oe-linux-gnueabi/usr/include/c++/15.1.0/ext/concurrence.h"
	.file 68 "/opt/venus/walnascar-arm-cortexa8hf-neon/sysroots/cortexa8hf-neon-oe-linux-gnueabi/usr/include/stdlib.h"
	.file 69 "/opt/venus/walnascar-arm-cortexa8hf-neon/sysroots/cortexa8hf-neon-oe-linux-gnueabi/usr/include/bits/stdlib-float.h"
	.file 70 "/opt/venus/walnascar-arm-cortexa8hf-neon/sysroots/cortexa8hf-neon-oe-linux-gnueabi/usr/include/bits/stdlib-bsearch.h"
	.file 71 "/opt/venus/walnascar-arm-cortexa8hf-neon/sysroots/cortexa8hf-neon-oe-linux-gnueabi/usr/include/c++/15.1.0/pstl/execution_defs.h"
	.file 72 "/opt/venus/walnascar-arm-cortexa8hf-neon/sysroots/cortexa8hf-neon-oe-linux-gnueabi/usr/include/c++/15.1.0/bits/algorithmfwd.h"
	.file 73 "/opt/venus/walnascar-arm-cortexa8hf-neon/sysroots/cortexa8hf-neon-oe-linux-gnueabi/usr/include/qt6/QtCore/qglobalstatic.h"
	.file 74 "/opt/venus/walnascar-arm-cortexa8hf-neon/sysroots/cortexa8hf-neon-oe-linux-gnueabi/usr/include/math.h"
	.file 75 "/opt/venus/walnascar-arm-cortexa8hf-neon/sysroots/cortexa8hf-neon-oe-linux-gnueabi/usr/include/qt6/QtCore/qxptype_traits.h"
	.file 76 "/opt/venus/walnascar-arm-cortexa8hf-neon/sysroots/cortexa8hf-neon-oe-linux-gnueabi/usr/include/string.h"
	.file 77 "/opt/venus/walnascar-arm-cortexa8hf-neon/sysroots/x86_64-ve-linux/usr/lib/arm-oe-linux-gnueabi/gcc/arm-oe-linux-gnueabi/15.1.0/include/stdarg.h"
	.file 78 "/opt/venus/walnascar-arm-cortexa8hf-neon/sysroots/cortexa8hf-neon-oe-linux-gnueabi/usr/include/wchar.h"
	.file 79 "/opt/venus/walnascar-arm-cortexa8hf-neon/sysroots/cortexa8hf-neon-oe-linux-gnueabi/usr/include/bits/types/wint_t.h"
	.file 80 "/opt/venus/walnascar-arm-cortexa8hf-neon/sysroots/cortexa8hf-neon-oe-linux-gnueabi/usr/include/bits/types/__mbstate_t.h"
	.file 81 "/opt/venus/walnascar-arm-cortexa8hf-neon/sysroots/cortexa8hf-neon-oe-linux-gnueabi/usr/include/bits/types/mbstate_t.h"
	.file 82 "/opt/venus/walnascar-arm-cortexa8hf-neon/sysroots/cortexa8hf-neon-oe-linux-gnueabi/usr/include/bits/types/__FILE.h"
	.file 83 "/opt/venus/walnascar-arm-cortexa8hf-neon/sysroots/cortexa8hf-neon-oe-linux-gnueabi/usr/include/bits/types/struct_FILE.h"
	.file 84 "/opt/venus/walnascar-arm-cortexa8hf-neon/sysroots/cortexa8hf-neon-oe-linux-gnueabi/usr/include/bits/types/FILE.h"
	.file 85 "/opt/venus/walnascar-arm-cortexa8hf-neon/sysroots/cortexa8hf-neon-oe-linux-gnueabi/usr/include/bits/types/struct_tm.h"
	.file 86 "/opt/venus/walnascar-arm-cortexa8hf-neon/sysroots/cortexa8hf-neon-oe-linux-gnueabi/usr/include/locale.h"
	.file 87 "/opt/venus/walnascar-arm-cortexa8hf-neon/sysroots/cortexa8hf-neon-oe-linux-gnueabi/usr/include/bits/types/__fpos64_t.h"
	.file 88 "/opt/venus/walnascar-arm-cortexa8hf-neon/sysroots/cortexa8hf-neon-oe-linux-gnueabi/usr/include/stdio.h"
	.file 89 "/opt/venus/walnascar-arm-cortexa8hf-neon/sysroots/cortexa8hf-neon-oe-linux-gnueabi/usr/include/bits/stdio.h"
	.file 90 "/opt/venus/walnascar-arm-cortexa8hf-neon/sysroots/cortexa8hf-neon-oe-linux-gnueabi/usr/include/qt6/QtCore/qnamespace.h"
	.file 91 "/opt/venus/walnascar-arm-cortexa8hf-neon/sysroots/cortexa8hf-neon-oe-linux-gnueabi/usr/include/qt6/QtCore/q20type_traits.h"
	.file 92 "/opt/venus/walnascar-arm-cortexa8hf-neon/sysroots/cortexa8hf-neon-oe-linux-gnueabi/usr/include/qt6/QtCore/qttypetraits.h"
	.file 93 "/opt/venus/walnascar-arm-cortexa8hf-neon/sysroots/cortexa8hf-neon-oe-linux-gnueabi/usr/include/qt6/QtCore/qchar.h"
	.file 94 "/opt/venus/walnascar-arm-cortexa8hf-neon/sysroots/cortexa8hf-neon-oe-linux-gnueabi/usr/include/qt6/QtCore/qstringfwd.h"
	.file 95 "/opt/venus/walnascar-arm-cortexa8hf-neon/sysroots/cortexa8hf-neon-oe-linux-gnueabi/usr/include/qt6/QtCore/qlatin1stringview.h"
	.file 96 "/opt/venus/walnascar-arm-cortexa8hf-neon/sysroots/cortexa8hf-neon-oe-linux-gnueabi/usr/include/c++/15.1.0/stdlib.h"
	.file 97 "/opt/venus/walnascar-arm-cortexa8hf-neon/sysroots/cortexa8hf-neon-oe-linux-gnueabi/usr/include/qt6/QtCore/qstringliteral.h"
	.file 98 "/opt/venus/walnascar-arm-cortexa8hf-neon/sysroots/cortexa8hf-neon-oe-linux-gnueabi/usr/include/qt6/QtCore/qstringview.h"
	.file 99 "/opt/venus/walnascar-arm-cortexa8hf-neon/sysroots/cortexa8hf-neon-oe-linux-gnueabi/usr/include/qt6/QtCore/qanystringview.h"
	.file 100 "/opt/venus/walnascar-arm-cortexa8hf-neon/sysroots/cortexa8hf-neon-oe-linux-gnueabi/usr/include/qt6/QtCore/qbytearraylist.h"
	.file 101 "/opt/venus/walnascar-arm-cortexa8hf-neon/sysroots/cortexa8hf-neon-oe-linux-gnueabi/usr/include/qt6/QtCore/qstringmatcher.h"
	.file 102 "/opt/venus/walnascar-arm-cortexa8hf-neon/sysroots/cortexa8hf-neon-oe-linux-gnueabi/usr/include/qt6/QtCore/qstringlist.h"
	.file 103 "/opt/venus/walnascar-arm-cortexa8hf-neon/sysroots/cortexa8hf-neon-oe-linux-gnueabi/usr/include/qt6/QtCore/qassert.h"
	.file 104 "/opt/venus/walnascar-arm-cortexa8hf-neon/sysroots/cortexa8hf-neon-oe-linux-gnueabi/usr/include/c++/15.1.0/new"
	.file 105 "<built-in>"