	.cpu cortex-a8
	.arch armv7-a
	.fpu neon
	.arch_extension sec
	.eabi_attribute 28, 1	@ Tag_ABI_VFP_args
	.eabi_attribute 20, 1	@ Tag_ABI_FP_denormal
	.eabi_attribute 21, 1	@ Tag_ABI_FP_exceptions
	.eabi_attribute 23, 3	@ Tag_ABI_FP_number_model
	.eabi_attribute 24, 1	@ Tag_ABI_align8_needed
	.eabi_attribute 25, 1	@ Tag_ABI_align8_preserved
	.eabi_attribute 26, 2	@ Tag_ABI_enum_size
	.eabi_attribute 30, 2	@ Tag_ABI_optimization_goals
	.eabi_attribute 34, 1	@ Tag_CPU_unaligned_access
	.eabi_attribute 18, 4	@ Tag_ABI_PCS_wchar_t
	.file	"reduced.cpp"
@ GNU C++17 (GCC) version 15.1.0 (arm-oe-linux-gnueabi)
@	compiled by GNU C version 15.1.0, GMP version 6.3.0, MPFR version 4.2.2, MPC version 1.3.1, isl version none
@ GGC heuristics: --param ggc-min-expand=100 --param ggc-min-heapsize=131072
@ options passed: -mfpu=neon -mfloat-abi=hard -mcpu=cortex-a8 -mlittle-endian -mtls-dialect=gnu -marm -march=armv7-a+sec+simd -g -O2 -std=c++17 -ffunction-sections
	.text
.Ltext0:
	.cfi_sections	.debug_frame
	.file 1 "../reduced.cpp"
	.section	.text._Z7testingv,"ax",%progbits
	.align	2
	.global	_Z7testingv
	.syntax unified
	.arm
	.type	_Z7testingv, %function
_Z7testingv:
	.fnstart
.LFB5:
	.loc 1 20 16 view -0
	.cfi_startproc
	@ args = 0, pretend = 0, frame = 24
	@ frame_needed = 0, uses_anonymous_args = 0
	.loc 1 21 3 view .LVU1
@ ../reduced.cpp:20: void testing() {
	.loc 1 20 16 is_stmt 0 view .LVU2
	str	lr, [sp, #-4]!	@,
	.save {lr}
	.cfi_def_cfa_offset 4
	.cfi_offset 14, -4
	.pad #28
	sub	sp, sp, #28	@,,
	.cfi_def_cfa_offset 32
@ ../reduced.cpp:21:   B test;
	.loc 1 21 5 view .LVU3
	add	r0, sp, #16	@ tmp126,,
	bl	_ZN1BC1Ev		@
.LVL0:
	.loc 1 22 3 is_stmt 1 view .LVU4
.LBB17:
.LBI17:
	.loc 1 9 10 view .LVU5
.LBB18:
	.loc 1 10 9 view .LVU6
@ ../reduced.cpp:10:         B dummy;
	.loc 1 10 11 is_stmt 0 view .LVU7
	mov	r0, sp	@,
	bl	_ZN1BC1Ev		@
.LVL1:
	.loc 1 11 9 is_stmt 1 view .LVU8
.LBB19:
.LBI19:
	.loc 1 13 5 view .LVU9
.LBB20:
.LBB21:
@ ../reduced.cpp:13:     B(B &other) : d(other.d), ptr(other.ptr) {
	.loc 1 13 27 is_stmt 0 view .LVU10
	vldr	d7, [sp]	@, MEM <vector(2) unsigned int> [(void *)&dummy]
@ ../reduced.cpp:13:     B(B &other) : d(other.d), ptr(other.ptr) {
	.loc 1 13 19 view .LVU11
	vstr	d7, [sp, #8]	@, MEM <vector(2) unsigned int> [(void *)&D.6228]
	.loc 1 14 9 is_stmt 1 view .LVU12
.LVL2:
.LBB22:
.LBI22:
	.loc 1 3 8 view .LVU13
.LBB23:
	.loc 1 3 15 view .LVU14
.L2:
@ ../reduced.cpp:3:   void ref() {__atomic_fetch_add(&_M_i, 1, 0); }
	.loc 1 3 33 is_stmt 0 view .LVU15
	ldrex	r1, [s14]	@ tmp123,* vect__5.8
	add	r1, r1, #1	@ tmp123, tmp123,
	strex	r2, r1, [s14]	@ tmp124, tmp123,* vect__5.8
	cmp	r2, #0	@ tmp124,
	bne	.L2		@,
.LVL3:
	.loc 1 3 33 view .LVU16
.LBE23:
.LBE22:
.LBE21:
.LBE20:
.LBE19:
@ ../reduced.cpp:11:         insertOne(dummy);
	.loc 1 11 18 discriminator 1 view .LVU17
	add	r1, sp, #8	@,,
	add	r0, sp, #16	@ tmp128,,
.LVL4:
	.loc 1 11 18 discriminator 1 view .LVU18
	bl	_ZN1B9insertOneES_		@
.LVL5:
	.loc 1 11 18 discriminator 1 view .LVU19
.LBE18:
.LBE17:
@ ../reduced.cpp:23: }
	.loc 1 23 1 view .LVU20
	add	sp, sp, #28	@,,
	.cfi_def_cfa_offset 4
	@ sp needed	@
	pop	{pc}	@
	.cfi_endproc
.LFE5:
	.fnend
	.size	_Z7testingv, .-_Z7testingv
	.text
.Letext0:
	.section	.note.GNU-stack,"",%progbits
